(lp0
S'large screens,variety,settings,research,appropriate interaction techniques,gesture,depth cameras,comparison study,eye,valuable substitute,dragging tasks,eye,gesture selection,selection,results,eye,selection gesture,dragging'
p1
aS'advanced,visualization,virtual environments,ubiquitous interaction paradigms,new challenges,opportunities,real-time responses,subliminal cues,paper,synthetic reality platform,psychophysiological recordings,enables,realtime,effects,various subliminal cues,various aspects,perception,context,consumer experience,choice,artifact,generation,subliminal perception,intelligent,interface controls,spatio-temporal aspects,information,emergent narrative,novel contribution,work,programmable nature,interface,exploits,perceptive phenomena,,,change blindness,subliminal perception'
p2
aS'problem,similarity,chromagrams,present,new quantized representations,task,first representation,sequence,optimal transposition index,oti,values,global chroma vector,frame,chromagram,second representation uses,similar fashion,global chroma,query,target chromagram,mutual information,chromagrams,representation,similarity,quantized representations,compression distance,ncd,similarity,k-medians,used euclidean distance,ncd,chromagrams,representations,method,experimenting,different cover versions,composition,experiments,various parameter settings,representations,results,possible directions,future work'
p3
aS'system,mirex,cover,identification task,method,measuring similarity,symbolic pieces,music'
p4
aS'novel compression-based method,measuring similarity,sequences,polyphonic music,method,mapping,values,binary chromagrams,midi files,tonal centroids,tonal centroid representation values,sequences,similarity,quantized sequences,normalized compression distance ncd,method,test set,classical music variations,precision,recall values,method,similarity,performance,method,discuss,consideration,method,measurement tasks'
p5
aS'kolmogorov complexity inlyrics,classification,music information retrieval,using,compression distance,simi-larity measure,lyrics,various evaluations,large sets,lyrics,several genres,lyricists,moods,results,straightforward compression-based similarity,tolyrics,competent performance'
p6
aS'normalized compression distance ncd,similarity,similarity,various domains,music,ncd,pairwise similarity measurement,lists,objects,compressibility,single object,context,list,assumptions,objects similarity,objects,list'
p7
aS'approach,cover version identification,combining different discretized features,chromagram vectors,audio data,measuring similarity,features,parameter-free quasi-universal similarity,data compression,evaluation,feature distances,accuracy,cover version identification'
p8
aS'system,cover,identification,approach,chord sequence estimation,similarity,normalized compression distance'
p9
aS'syntaxerror,file operand stack,nostringval execution stack,interp_exit,runexec2 nostringval nostringval nostringval,stopped_push nostringval nostringval nostringval false,stopped_push,oparray_pop,oparray_pop,oparray_pop,oparray_pop nostringval errorexec_pop,runexec2 nostringval nostringval nostringval,stopped_push dictionary stack,dict,ro,,dict,,dict,current allocation mode,local current file position'
p10
aS'thesauri,list,salient semantic relations,words,therefore,inclusion,entry,subjective decision,lexicographer,consequence,resources,paper,methodology,pairs,words,local environment,semantic similarity,global semantic spaces,proposal differs,research,different methodologies,,semantic space models,information extraction models,close semantic relations,search space,probable options'
p11
aS'paper,statistical techniques,direct evaluation,descriptive phrases'
p12
aS'paper,problem,exploitation,text phrases,multilingual context,technique,multi-word units'
p13
aS'paper,language technology research project,dialogue system,mobile platform,maintenance job scenario,human-machine interface uses,synthesis,recognition,hypertext display,modular agent architecture,independent program components,communicate using ontology programming techniques,domain content,lingware,standard web ontology formats,ontology-aware offline tools,contribution,project,attention,standardization,system,new content,new domains,languages,purposes'
p14
aS'paper,new technique,extraction,discontiguous sequential descriptors,form word sequences,restriction,size,distance,components,concept,maximal frequent sequence,mfs,approach,extraction,compact text descriptors,quality,efficient manner,known techniques,document collections,size,approaches,collections,review,related work,presentation,approach,mf minesweep,measures,quality,quantity,information,set,sequential descriptors,document collection,present experiments,results,real-life applicability,superiority,method'
p15
aS'efficient technique,calculating,probability,occurrence,sequence,words,,probability,words,order,many words,procedure,words,documents,type,sequential data,,item sequences,transactions,method relies,formalization,particular markov chain model,specificities,techniques,probability,linear algebra,competitive computational complexity,technique,efficient calculation,document frequency,sequence,application,fast,automatic direct method,interestingness,word sequences,comparing,frequencies'
p16
aS'different query formulation strategies,expansion,lexical affinities,context,passage retrieval,method,queries,lexical affinities replaces,missing terms,original query,candidate passages,replacement term,affinity,term,weight,substitution,degree,affinity,statistics,terabyte corpus,passages,replacement method,set,passages,different formulation strategies,trec,qa test'
p17
aS'lexical description,surface strings,morphophonological alternation rules,usual description,terminology,xerox,language represents,correct word forms,compile-replace algorithm,initial network,,composition,lexicon,rules,abstract,meta-morphotactic descriptions,non-concatenative phenomena,kind,description,morphophonological rules,lexicon,form,regular expressions,network,network,strings,meta-morphotactic descriptions,form,regular expressions,thecompile-replace command,side,initial network,meta-morphotactic descriptions,compiles,regularexpressions,replaces,lexicon network,new network,compilation,beesley,karttunen,example,,illuminates,description,swahili verb sema'
p18
aS'little information,independent sources,public domain,mobile malware infection rates,previous independent estimate,indirect measurements,domain name resolution traces,paper,first independent study,malware infection rates,risk factors,data,android devices,malware infection rates,android devices,malware datasets,previous independent estimate,using,datasets,indicators,devices,malware infection,hypothesis,application stores,density,malicious applications,advertising,applications,cross-promotional deals,infection vectors,set,applications,device,indicator,infection,device,analysis,alone,accurate indicator,pinpointing infection,useful way,pool,devices,expensive monitoring,analysis mechanisms,using,malware datasets,indicator,times,devices,baseline,random checks,indicators,example,search,malware,technique,standard malware,anti-malware tools,analysis,significant difference,battery use,clean devices'
p19
aS'design,implementation'
p20
aS'mobile smart devices,services,integral part,daily life,,context,scenarios,mobile device users,resources,popular example,resources,privacy,security issues'
p21
aS'execution environment,tee,secure processing environment,normal processing environment,device operating system,applications,first mobile phones,hardware-based tees,decade,today,smartphone,contains,tee,arm trustzone,despite,large-scale deployment,use,tee functionality,developers,standardization,situation,,security features,mobile tees,on-board credentials,obc,system,third-party tee development,tee standardization activities,recent global platform standards,trusted platform module tpm,specification,open problems,near future,mobile hardware security'
p22
aS'third-party applications,apps,attractiveness,web,mobile application platforms,platforms,decentralized control strategy,explicit user consent,granting permissions,apps,users,community ratings,signals,inappropriate apps,community ratings,opinions,functionality,performance,risks,arrival,html5 web apps,user-consent permission systems,effectiveness,user-consent permission systems,large scale data collection,facebook apps,chrome extensions,android apps,analysis,current forms,community ratings,app markets today,reliable indicators,privacy risks,app,evidence,attempts,entice users,permissions,free applications,applications,mature content request,permissions,applications,popular applications,permissions,platforms popular applications request,permissions'
p23
aVtrusted execution environments,tees,mobile devices,personal computers,tees,small amount,secure memory,certain algorithms,encryption modes,standard manner,tees,access,much larger,system memory,variants,algorithms,input,output,memory,,paper,need,variants,encryption modes,tees,version,eax mode,secure,baseline,eax,potential pitfalls,abstract description,variant,implementation,discuss,algorithms,similar fashion
p24
aS'access control policies,mobile devices,users,software designers attempt,problem,setting,default policy configurations,global defaults,users,modern smart phones,sensing,variety,information,surrounding environment,bluetooth devices,wifi access points,temperature,ambient light,sound,location coordinates,type,contextual information,familiarity,safety,context,access control decisions,context,framework,device,example application,locking,method,safety,current context,report,datasets,large scale smart phone data collection campaign,parameters,context,framework,prototype implementation,smart phone platform,example design,implementation spurs,research,notion,context,towards,security policy decisions,applications'
p25
aS'enzyme function prediction,important problem,post-genomic bioinformatics,reconstruction,metabolic networks,organisms,general methods,problem,annotation transfer,protein,machine learning approaches,treat,problem,classification,taxonomy,gene ontology,ec hierarchy,methods,cases,function,new protein,taxonomy,new function,approaches,significant assistance,human expert,goal,paper,output learning approaches,case,correct function,enzyme,training,approach hinges,fine-grained representation,enzyme function,reaction kernels,interpolation,extrapolation,output,reaction,space,output prediction model,enzymatic reactions,sequence motifs,several choices,reaction kernels,experiment,remote homology case,functions,test set,training phase'
p26
aVenzyme function prediction problem,annotation transfer methods,methods,cases,function,new protein,taxonomy,ec hierarchy,new function,approaches,adequate support,human expert,,paper,output learning approach,enzyme function,enzymatic reaction,fine-grained fashion,reaction kernels,interpolation,extrapolation,output,reaction,space,models,kernel density estimation,maximum margin regression,enzymatic reactions,sequence motifs,choices,reaction kernels,experiment,remote homology case,functions,test set,training phase,experiments,viability,approach
p27
aS'motivation,enzyme function prediction,important problem,post-genomic bioinformatics,general methods,problem,annotation transfer,protein,machine learning approaches,treat,problem,classification,taxonomy,gene ontology,ec hierarchy,methods,cases,function,new protein,taxonomy,new function,approaches,adequate support,human expert'
p28
aS'paper,work,progress,kernel methods,enzyme function prediction,focus,output prediction methods,enzymatic reaction,combinatorial target object,prediction,output prediction methods,hierarchical max-margin markov algorithm,hmin,experiments,predicting enzyme ec classification,accuracy,digit ec code,microlabel f1 score,individual ec digits,predicting,gold standard enzyme families,accuracy,family,microlabel f1 score,superfamilies,families,latter case,methods,neighbor classifier,polynomial kernel,gtg feature,accurate function prediction,combining gtg,kernels,accuracy,case,ec class prediction,structured,prediction,gtg features,accuracy,par,state-of-the-art approaches,enzyme function prediction'
p29
aS'recent emergence,electronic literature re-sources,researchers,new informationseeking practices,purpose,research,information,behaviors,researchers,implications,electronic literature search tools,mixed-method case studies,interviews,diary logs,observations,com-puter scientists,web-based survey,findings,results,computer science re-searchers,main purposes,information,date,new topics,re-viewing literature,lectures,material,students,date,research,frequent purpose,unfamiliar research areas,furthermore,literature,collaborative process,search,different information sources,navigation strategies,basis,findings,design challenges,literature search tools,support,date,research,unfamiliar topics,user history,federated search,research,results,keywords'
p30
aS'paper presents,design,study,interactive user,exploratory search tasks,contrary,traditional interactions,query,search,query suggestions,relevance feedback,interactive user,allows,user,state,user model,times,feedback,pe-nalizes,technique,user,system,belief,user,,infor-mation needs,functionality,exploratory search,users,body,literature,domain,experiments,scientists,exploratory search tasks,implementation,interactive user,retrieval system,scinet,baselines,scinet,interactive user,real-world baseline,google scholar,results,interactive user,users,novel,diverse information,compromises,task execution time'
p31
aS'interactive intent,user,exploratory search,providing feedback,estimates,search intents,intents,interaction,intent radar,novel visual interface,intents,radial layout,relevant intents,center,visualization,similar intents,similar angles,user,feedback,visualized intents,system,intent estimates,effect,interactive intent,mixed-method task-based information,users,interface variants,interactive intent,intent radar,simpler list-based interface,conventional search system,results,interactive intent,users,task performance,quality,information'
p32
aS'techniques,exploratory,item search tend,specific subtopics,individual documents,allowing,exploration,information space,interactive information retrieval system,reinforcement learning,novel user interface design,active engagement,users,search,users,document features,keywords,interests,reinforcement learning,user,allowing,system,exploration,exploitation,users,opportunity,search nearer,direction,task-based user study,participants,system,traditional query-based baseline,system,effectiveness,information retrieval,providing access,novel information,time,information'
p33
aS'techniques,exploratory,item search tend,specific subtopics,individual documents,allowing,exploration,information space,scinet,interactive information retrieval system,reinforcement learning,novel user interface design,active engagement,users,search,users,document features,keywords,interests,reinforcement learning,user,allowing,system,exploration,exploitation,users,opportunity,search'
p34
aS'media creation applications cater,common usage,situations,users,media,finding,media,cumbersome process,users,content,search engine,copy,work,cross,fingers,hope,copyrights,authors,hundreds,millions,images,permissive licenses,license terms,users,,studies,well-intentioned users,copyrights,simple image reuse situations,open media retrieval omr model,problem,supplement,prototypes,access various legal image sources,creative work flow,automatic credits,original authors'
p35
aS'pervasive social computing,novel collective paradigm,pervasive computing,social media,social networking,social signal processing,etc,paper,pervasive social computing,integrated computing environment,augment,facets,human intelligence,physical environment awareness,behavior awareness,community awareness,interaction awareness,content awareness,reviews,related studies,generic architectures,architecture,pervasive social computing,prototype,order,characteristics,pervasive social computing'
p36
aS'automation,process,machine,machines,tasks,humans,home automation concerns,domestic tasks,number,applications,home automation,bluetooth,ethernet,power techniques,remote controls,publication,providing facility,control,monitor,number,equipments,home,mobile device,low cost,general packet radio services,gprs,networks,paper presents,recent research,development effort,construing,real-time home automation,system,smarteye,cellular networks,internet,server,hardware equipments,gprs networks,smarteye,tasks,automation,mobile phone,automation,household electrical appliances,electric bulbs,door locks,smarteye,alerting mechanism,security cameras,homes,interface,monitor,control,home,mobile devices,system,home,world wide web,mobile devices,paper,architecture,system,reliable real-time monitoring,solution'
p37
aS'key component,information-centric networking,work,area,simple en-route caching,limited cooperation,caches,paper,cooperation,game theoretical framework,show,cooperation policy,system,pareto optimal configuration,work,cooperation impacts network,performance,advantage,structural properties,network'
p38
aS'paper,basic problem,pattern,preprocess,multiple,strings,alphabet'
p39
aS'karpinski,nekrich,problem,range majority,preprocess,string,length'
p40
aS'let'
p41
aS'succinct,compact representations'
p42
aS'bayesian network structure,hard problem,finding,directed acyclic graph structure,data,structure,probabilistic inference,exact inference,bayesian networks,networks,low treewidth,good motivations,algorithms,nphard problem,learning,treewidth bayesian,btw-bnsl,,work,novel score-based approach,casting btw-bnsl,partial maximum satisfiability,approach scales,recent exact dynamic programming algorithm'
p43
aS'extensible framework,correlation,harnessing,maximum satisfiability,maxsat,boolean optimization paradigm,approach,formulating,correlation,task,exact fashion,maxsat,state-of-the-art maxsat solver,finding clusterings,maxsat formulation,approach,finding optimal clusterings wrt,objective function,problem,extends,correlation,easy integration,user-defined domain knowledge,terms,hard constraints,clusterings,correlation,first experiments,scalability,approach'
p44
aS'little information,independent sources,public domain,mobile malware infection rates,previous independent estimate,indirect measurements,domain name resolution traces,paper,first independent study,malware infection rates,risk factors,data,android devices,malware infection rates,android devices,malware datasets,previous independent estimate,using,datasets,indicators,devices,malware infection,hypothesis,application stores,density,malicious applications,advertising,applications,cross-promotional deals,infection vectors,set,applications,device,indicator,infection,device,analysis,alone,accurate indicator,pinpointing infection,useful way,pool,devices,expensive monitoring,analysis mechanisms,using,malware datasets,indicator,times,devices,baseline,random checks,indicators,example,search,malware,technique,standard malware,anti-malware tools,analysis,significant difference,battery use,clean devices'
p45
aS',activities,order,activity datasets,activity recognition systems,case,experts,non-experts,crowd-sourcing paradigms,annotation effort,process,distributing,task,multiple annotators,method,annotation boundaries,correct annotation label,boundaries,label jitter,approach,fukunaga class-separability,series,evaluations,standard benchmark dataset,significant improvements,initial jittery annotations'
p46
aS'dynamics,city,others,patterns,dwellers,accurate knowledge,human mobility patterns,applications,,urban design,optimization,public transportation operating costs,improvement,public transportation services,present paper combines,large scale,transportation dataset,available data sources,bus usage,gaussian process-based approach,modeling,bus ridership,approach,experiments,data,lisbon,portugal,results,significant improvements,prediction accuracy,probabilistic baseline predictor'
p47
aS'mobile devices,number,inbuilt sensors,,gps,wifi,gsm,accelerometer,compass,gyroscope,nfc,bluetooth,equipped,sensors,internet connectivity,modern mobile phones,continuous sensing,many emergent mobile applications,context,phone,users,needs,usability,battery power,big hindrance,deployment,continuous sensing,mobile devices,intelligent sensor management,battery lasts,hours,research,address,challenges,ubiquitous positioning solutions,cross-device indoor localization,position,trajectory,high-level contexts,machine-learning techniques,sensor data,energy-efficient way'
p48
aS'ng positions,indoor location based services'
p49
aS'emergent location-aware applications,trajectories,mobile devices,long period,time,tracking,major impact,battery life,mobile device,furthermore,trajectory information,remote server,on-device simplification,trajectories,amount,data transmission,lot,work,energy-efficient position,energy-efficient tracking,trajectories,previous work,,paper,novel on-device sensor management strategy,set,trajectory,protocols,different sensors,accelerometer,compass,gps,data,sent,remote server,system,regards,accuracy requirements,unified framework,position,trajectory,effectiveness,approach,emulation experiments,real world data sets,different modes,transportation,car,validating,real-world deployment,results,approach,considerable savings,battery consumption,state-of-the-art position,system,time,accuracy,trajectory,,support,specific accuracy requirements,different types,applications'
p50
aS'cyber foraging,pervasive computing technique,mobile devices,resource intensive work,nearby surrogate computers,order,energy,performance,problem,relying,local resources,availability,resources,scarce,many environments,paper,third tier,cyber,considering,local device,cloud,mobile device,remote resources,resources,vicinity,important challenge,pervasive computing,physical position,mobile devices,requirements increase,accurate positioning,computational requirements,positioning-even limiting,possible accuracy,many cases,,paper,tier cyber,approach,positioning capabilities,mobile devices,initial results,approach,filtering-based gsm positioning'
p51
aS'several studies,prospects,spectral ordering,data,successful application,seriation,paleontological findings,,sites,excavation,data,mammal co-occurrences,spectral ordering ignores,background knowledge,domain,paleontologists,ages,sites,accuracy,,hand,age information,approach,background knowledge,information,mammal co-occurrences,motivated,kind,partial supervision,novel semi-supervised spectral ordering algorithm,laplacian matrix,domain knowledge,account,feature selection,discarding features,contribute,unwanted variability,data,bootstrap,effectiveness,framework,seriation,usenet newsgroup messages,task,flow,discussion,theoretical properties,algorithm,framework enhances,stability,spectral ordering output,induces computational gains'
p52
aS'recent studies,prospects,data,algorithms,task,seriation,paleontological data,,age-based ordering,sites,excavation,prominent approach,spectral ordering,similarity measure,sites,orders,similar sites,dissimilar sites,paleontological domain,similarity measure,mammal genera,site,excavation,spectral ordering achieves good performance,seriation task,background knowledge,domain,paleontologists,ages,sites,excavation,accuracy,,hand,age information,approach,background knowledge,information,mammal co-occurrences,motivated,kind,partial supervision,novel semi-supervised spectral ordering algorithm,algorithm modifies,laplacian matrix,spectral ordering,domain knowledge,ordering,account,feature selection,sparsification,discarding features,contribute,unwanted variability,data,bootstrap,theoretical properties,algorithm,framework enhances,stability,spectral ordering output,induces computational gains'
p53
aS'recommendation approaches,online multimedia,services,,userrank,items,global interestingness,user preferences,analysis,ownership,evaluation link structure,personalized interestingness algorithm,userrank,collaborative filtering,enables,single parameter,control,degree,personalization,recommendations,initial results,informal user study'
p54
aVprobabilistic multiple cause model,analysis,binary,data,distinctive feature,aspect bernoulli ab model,ability,true absences,absences,data,true presences,presences,specific additive noise components,non-content bearing causes,ab model,noise removal,data explanatory purposes,omission addition detection,important application,ab,data-driven reasoning,palaeontological recordings,results,handwritten digit images,short text documents,comparisons,methods
p55
aS'problem,interactive feature construction,binary data,end,variational ica method,multivariate bernoulli likelihood,independent beta source densities,binary data models,advantages,application domains'
p56
aS'algorithms,boltzmann machines,rmbs,markov chain monte carlo mcmc methods,gibbs sampling,prominent examples,contrastive divergence learning,cd,variants,parallel tempering pt,performance,methods,mixing properties,gibbs chain,metropolis-type mcmc algorithm,transition operator,probability,state changes,operator induces,hence,markov chain,used periodic update schemes,transition operator,gibbs sampling,rbm learning algorithms,computational overhead,leads,mixing,turn,accurate learning'
p57
aS'considerable interest,topic models,bag-of-features representation,images,strong independence assumption inherent,bag-of-features representation,patches,share,image structures,important information,respect,relative scales,features,sake,scale invariance,considering,scale-based constraints,natural feature hierarchies,images,use,topic models,scale-induced hierarchies,features,fashion,model,standard topic models,starting point,information,spatial relations,features,model,hierarchical nature,models,datasets,natural images,msrc2 dataset,challenging set,images,trees,internet'
p58
aS'article presents,unified theory,analysis,components,discrete data,methods,techniques,independent component analysis,non-negative matrix factorisation,latent dirichlet allocation,main families,algorithms,variational approximation,gibbs sampling,rao-blackwellised gibbs sampling,applications,voting records,united states senate,reuters-21578 newswire collection'
p59
aS'syntaxerror,file operand stack,nostringval execution stack,interp_exit,runexec2 nostringval nostringval nostringval,stopped_push nostringval nostringval nostringval false,stopped_push,oparray_pop,oparray_pop,oparray_pop,oparray_pop nostringval errorexec_pop,runexec2 nostringval nostringval nostringval,stopped_push dictionary stack,dict,ro,,dict,,dict,current allocation mode,local current file position'
p60
aS'acceptable quality level,interactive media,interactive video,audio,presence,tcp traffic,volatile tcp traffic,web traffic causes,queues,jitter,packets,media,meanwhile long-lived tcp connections,queues,form,increases,one-way delay,media,packets,insights,problem space,experiments,real high-speed cellular network,results confirm,existence,issues,web-like traffic,long-lived tcp connections,current trend,several parallel connections,web browsers tends,high cost,media,addition,recent proposal,initial window,tcp,segments,jitter problem'
p61
aS',edard,capacity,chan-nels,imperfect channel-state information,csi,assuming,gaussian channel input,unknown portion,channel,channel input,independent worst-case,gaussian noise,bound,rate-splitting approach,expressing,channel input,thesum,independent gaussian random variables,layers,x1 x2,applying,edard,,first lower-bound,capacity,virtual channel,x1,channel output,x2,noise,capacity,virtual channel,x2,,x1,obtains,lowerbound,,edard,,ratesplitting approach,reminiscent,approach,rimoldiand urbanke,points,capacity region,gaussian multiple-access channel,mac,rate-splitting approaches,novel inner bound,capacity region,memoryless,mac withimperfect csi,generalizing,rate-splitting approach,layers,weassign powers,layer,supremum,rate-splitting bounds,number,layers tends,infinity,integral expression,supremum,expression,vertices,innerbound,number,layers,power assignments'
p62
aS'succinct,compact representations'
p63
aVpattern,string,computational biology,large-scale text mining,computation,expectation,variance,number,occurrences,pattern,rigid gaps,random,contributions,patterns,groups,characters,alphabet,position,way,exact expectation,variance,number,occurrences,pattern
p64
aS'acceptable quality level,interactive media,interactive video,audio,presence,tcp traffic,volatile tcp traffic,web traffic causes,queues,jitter,packets,media,meanwhile long-lived tcp connections,queues,form,increases,one-way delay,media,packets,insights,problem space,experiments,real high-speed cellular network,results confirm,existence,issues,web-like traffic,long-lived tcp connections,current trend,several parallel connections,web browsers tends,high cost,media,addition,recent proposal,initial window,tcp,segments,jitter problem'
p65
aS'available network capacity,tcp connection,important research problem,connection,throughput,fairness,addition,packet losses,depart,network,state,tcp connection,good estimate,available capacity,tcp,actual available capacity,network,heterogeneous access network environments,end-to-end path characteristics,tcp connection,changes,access link characteristics,vertical handoff,,paper,approach,available network capacity estimation,cross-layer notifications,tcp,access link bandwidth,delay,rough estimate,available capacity,tcp connection,using simulation experiments,algorithms,different phases,tcp connection,available capacity,beginning,tcp connection,vertical handoff,results,algorithms,tcp throughput,transfer time,vertical handoff,heterogeneous access networks'
p66
aS'available network capacity,tcp connection,important research problem,connection,throughput,fairness,addition,packet losses,depart,network,state,tcp connection,good estimate,available capacity,tcp,actual available capacity,network,heterogeneous access network environments,end-to-end path characteristics,tcp connection,changes,access link characteristics,vertical handoff,,paper,approach,available network capacity estimation,cross-layer notifications,tcp,access link bandwidth,delay,rough estimate,available capacity,tcp connection,using simulation experiments,algorithms,different phases,tcp connection,available capacity,beginning,tcp connection,vertical handoff,results,algorithms,tcp throughput,transfer time,vertical handoff,heterogeneous access networks'
p67
aS'performance,individual tcp flow,vertical handoff,several papers,effect,vertical handoff'
p68
aS'paper,enhancement,tcp sender algorithm,packet,vertical handoff,fast access link,algorithm employs cross-layer notifications,changes,access link characteristics,algorithm avoids unnecessary retransmissions,dupthresh value,bandwidth,delay,new access links,handoff,addition,dsack information,congestion-related losses,selects,values,cwnd,handoff,simulation results,unnecessary retransmissions,packet,vertical handoff,wide range,bandwidth,delay ratios,access,addition,algorithm,reducing,congestion-related packet losses,decrease,bandwidth-delay product,bdp,handoff'
p69
aS'syntaxerror,file operand stack,nostringval execution stack,interp_exit,runexec2 nostringval nostringval nostringval,stopped_push nostringval nostringval nostringval false,stopped_push,oparray_pop,oparray_pop,oparray_pop,oparray_pop nostringval errorexec_pop,runexec2 nostringval nostringval nostringval,stopped_push dictionary stack,dict,ro,,dict,,dict,current allocation mode,local current file position'
p70
a.