c__builtin__
set
p0
((lp1
S'sparse graphs'
p2
aS'colors'
p3
aS'paper'
p4
aS'relation'
p5
aS'acoustic emission analysis'
p6
aS'previous sparse graph algorithms'
p7
aS'ell'
p8
aS'acoustic emission'
p9
aS'sensor antenna'
p10
aS'time delay estimation'
p11
aS'quantum law'
p12
aS'intelligent acoustic emission source locator'
p13
aS'signals'
p14
aS'location'
p15
aS'classical-quantum channels'
p16
aS'tests'
p17
aS'mixture'
p18
aS'specimen'
p19
aS'certain mixtures'
p20
aS'ae analysis'
p21
aS'recent years'
p22
aS'ae sources'
p23
aS'solves'
p24
aS'relative entropy'
p25
aS'intelligent locator comprises'
p26
aS'method'
p27
aS'new algorithm'
p28
aS'sparsity'
p29
aS'mode'
p30
aS'entropy'
p31
aS'complicated aircraft frame structures'
p32
aS'algorithmic solutions'
p33
aS'connections'
p34
aS'examples'
p35
aS'proofs'
p36
aS'location accuracy'
p37
aS'clarifies'
p38
aS'pebbles'
p39
aS'capacity'
p40
aS'dimensions'
p41
aS'arboricity'
p42
aS'ica'
p43
aS'large numbers'
p44
aS'system size'
p45
aS'difficult problem'
p46
aS'lee'
p47
aS'active continuous acoustic emission sources'
p48
aS'signal components'
p49
aS'attention'
p50
aS'feldmann'
p51
aS'diosi'
p52
aS'separation'
p53
aS'first proof'
p54
aS'article'
p55
aS'properties'
p56
aS'non-destructive testing'
p57
aS'hendrickson'
p58
aS'special instances'
p59
aS'various sources'
p60
aS'continuous acoustic emission sources'
p61
aS'tutte-nash-williams characterization'
p62
aS'aluminum band specimen'
p63
aS'density matrices'
p64
aS'family'
p65
aS'characterization'
p66
aS'new proof'
p67
aS'learning'
p68
aS'aircraft frame structures'
p69
aS'sonic ray paths'
p70
aS'area'
p71
aS'independent signals'
p72
aS'westermann'
p73
aS'conventional triangulation method'
p74
aS'intelligent locator'
p75
aS'blind source separation'
p76
aS'promising method'
p77
aS'part'
p78
aS'previous results'
p79
aS'different test specimens'
p80
aS'work'
p81
aS'gabow'
p82
aS'limit'
p83
aS'new decomposition'
p84
aS'part ii'
p85
aS'pebble game'
p86
aS'streinu'
p87
aS'ae'
p88
aS'conjecture'
p89
aS'generalization'
p90
aS'unit cost'
p91
aS'independent component analysis'
p92
aS'general regression neural network'
p93
aS'defects'
p94
aS'quantum mechanical model'
p95
aS'sound velocity'
p96
aS'location problem'
p97
aS'kosloff'
p98
aS'accuracy'
p99
aS'rigidity theory'
p100
aS'applicability'
p101
aS'attenuation'
p102
aS'infinity'
p103
aS'intelligent acoustic emission locator'
p104
aS'problems'
p105
aS'bss'
p106
aS'location depends'
p107
aS'active acoustic emission sources'
p108
aS'tree decompositions'
p109
aS'uses'
p110
aS'purpose'
p111
aS'data'
p112
aS'locator performance'
p113
aS'acoustic emission method'
p114
aS'pebble game algorithms'
p115
aS'analysis'
p116
aS'graphs'
p117
aS'materials'
p118
atp119
Rp120
.