c__builtin__
set
p0
((lp1
S''
p2
aS'learning'
p3
aS'density matrices'
p4
aS'family'
p5
aS'characterization'
p6
aS'westermann'
p7
aS'sparse graphs'
p8
aS'ae analysis'
p9
aS'colors'
p10
aS'paper'
p11
aS'relation'
p12
aS'new proof'
p13
aS'algorithmic solutions'
p14
aS'aircraft frame structures'
p15
aS'sonic ray paths'
p16
aS'defects'
p17
aS'previous sparse graph algorithms'
p18
aS'ell'
p19
aS'acoustic emission'
p20
aS'sensor antenna'
p21
aS'time delay estimation'
p22
aS'quantum law'
p23
aS'intelligent acoustic emission source locator'
p24
aS'signals'
p25
aS'conventional triangulation method'
p26
aS'location'
p27
aS'intelligent locator'
p28
aS'recent years'
p29
aS'promising method'
p30
aS'conjecture'
p31
aS'mixture'
p32
aS'specimen'
p33
aS'certain mixtures'
p34
aS'part'
p35
aS'previous results'
p36
aS'kosloff'
p37
aS'aluminum band specimen'
p38
aS'classical-quantum channels'
p39
aS'different test specimens'
p40
aS'unit cost'
p41
aS'ae sources'
p42
aS'blind source separation'
p43
aS'solves'
p44
aS'relative entropy'
p45
aS'gabow'
p46
aS'method'
p47
aS'work'
p48
aS'sparsity'
p49
aS'limit'
p50
aS'mode'
p51
aS'entropy'
p52
aS'new decomposition'
p53
aS'part ii'
p54
aS'complicated aircraft frame structures'
p55
aS'streinu'
p56
aS'ae'
p57
aS'applicability'
p58
aS'tests'
p59
aS'generalization'
p60
aS'intelligent locator comprises'
p61
aS'connections'
p62
aS'independent component analysis'
p63
aS'examples'
p64
aS'proofs'
p65
aS'location accuracy'
p66
aS'clarifies'
p67
aS'pebbles'
p68
aS'new algorithm'
p69
aS'general regression neural network'
p70
aS'capacity'
p71
aS'dimensions'
p72
aS'continuous acoustic emission sources'
p73
aS'arboricity'
p74
aS'ica'
p75
aS'quantum mechanical model'
p76
aS'sound velocity'
p77
aS'location problem'
p78
aS'large numbers'
p79
aS'pebble game'
p80
aS'system size'
p81
aS'difficult problem'
p82
aS'accuracy'
p83
aS'rigidity theory'
p84
aS'attenuation'
p85
aS'infinity'
p86
aS'lee'
p87
aS'intelligent acoustic emission locator'
p88
aS'active continuous acoustic emission sources'
p89
aS'signal components'
p90
aS'acoustic emission analysis'
p91
aS'attention'
p92
aS'problems'
p93
aS'bss'
p94
aS'location depends'
p95
aS'feldmann'
p96
aS'various sources'
p97
aS'tree decompositions'
p98
aS'uses'
p99
aS'diosi'
p100
aS'separation'
p101
aS'first proof'
p102
aS'article'
p103
aS'data'
p104
aS'properties'
p105
aS'locator performance'
p106
aS'non-destructive testing'
p107
aS'hendrickson'
p108
aS'acoustic emission method'
p109
aS'pebble game algorithms'
p110
aS'area'
p111
aS'special instances'
p112
aS'active acoustic emission sources'
p113
aS'analysis'
p114
aS'graphs'
p115
aS'materials'
p116
aS'tutte-nash-williams characterization'
p117
aS'independent signals'
p118
aS'purpose'
p119
atp120
Rp121
.