(dp0
S'165'
p1
S'attack security network detect detection malicious threat attacker vulnerability mechanism internet traffic monitor malware defense secure target protect intrusion_detection_system'
p2
sS'133'
p3
S'approach hand like type time free calculation mean carry one_hand etc calculate specific name can_use amp aim since done'
p4
sS'132'
p5
S'process phase time activate execution exclusion mutual activation involve control create checkpoint decision take two_phase implement dynamic integration get'
p6
sS'131'
p7
S'channel capacity fade snr modulation diversity constellation fade_channel receiver rate average performance transmission mimo signal symbol mutual_information input bit'
p8
sS'130'
p9
S'logic semantics reasoning logical logic_program proof formula rule extension calculus operator propositional completeness axiom program language classical disjunctive stable_model'
p10
sS'137'
p11
S'transformation transform rotation invariant translation ball bin segment discrete scale conversion original affine hilbert map operator island angle cosine'
p12
sS'136'
p13
S'stability robust stable switch perturbation robustness uncertainty condition bound unstable smooth instability stabilize guarantee region lyapunov_function criterion establish noise'
p14
sS'135'
p15
S'group layer neural_network subgroup deep multilayer unit hide automorphism generate network symmetry element member activation form conjugacy orbit abelian_group'
p16
sS'134'
p17
S'discrete continuous email spam filter hybrid phish mail grain spammer grey account sandpile appropriate month chance include pile et_al'
p18
sS'139'
p19
S'protein biological gene population sequence genome evolutionary molecular dna genetic fitness molecule species biology process evolution reaction cell interaction'
p20
sS'138'
p21
S'matrix tensor rank eigenvalue vector entry column spectral row symmetric eigenvector method decomposition sparse linear form covariance_matrix determinant factorization'
p22
sS'166'
p23
S'patient medical disease clinical health cancer diagnosis data segmentation imaging brain treatment healthcare eeg breast drug diagnostic tumor method'
p24
sS'24'
p25
S'partition block conjecture maximal family every clone minimal cardinality property independent_set balance equal state set subset true form hold'
p26
sS'25'
p27
S'domain action planning plan planner state planning_problem knowledge competition effect world generate execution goal temporal reasoning description representation complex'
p28
sS'26'
p29
S'property trace symmetry set preserve form satisfy including natural class investigate hold relation family instance interesting structural classical can_use'
p30
sS'27'
p31
S'software design project requirement process engineering support approach methodology quality software_development activity developer architecture reuse practice effort software_engineering software_system'
p32
sS'20'
p33
S'partial pair complete universal full completion set incomplete almost sense unique binary sequence partially form completeness known completely assumption'
p34
sS'21'
p35
S'ontology semantic annotation knowledge domain concept information semantic_web data resource description link rdf approach language annotate web represent integration'
p36
sS'22'
p37
S'query database data schema xml index answer view relational sql set join store relational_database data_warehouse access support efficient tuple'
p38
sS'23'
p39
S'data hide hiding secret steganography method steganographic voip embed image cover message bit voice file covert security audio carrier'
p40
sS'160'
p41
S'state dynamics model behavior dynamical_system cellular_automata particle evolution rule configuration dynamical interaction transition discrete change chaotic behaviour couple simulation'
p42
sS'28'
p43
S'network node link topology connect complex_network property degree connectivity edge graph degree_distribution centrality connection topological measure flow internet network_topology'
p44
sS'29'
p45
S'kernel risk financial transaction market trade price stock option portfolio return bank reproduce investment credit asset hilbert_space volatility money'
p46
sS'161'
p47
S'point curve plane surface geometric convex region line polygon triangulation geometry set boundary planar polytope mesh space triangle angle'
p48
sS'0'
p49
S'effort literature year approach community including recent since researcher main aspect understanding made topic need still last direction conclude'
p50
sS'4'
p51
S'human cognitive intelligence brain process spike neuron activity learn model interaction neural artificial response behavior mechanism computer computational cell'
p52
sS'8'
p53
S'information transfer process context extract access relevant available contain information_source contextual provided multiple form carry limit able reveal infer'
p54
sS'163'
p55
S'tree root node leave branch phylogenetic forest binary subtree leaf child tree_structure algorithm construct depth binary_tree search_tree star height'
p56
sS'119'
p57
S'detection detector sensor detect observation decision probability performance optimal rate false_alarm rule fusion_center stop sequential signal hypothesis false error_probability'
p58
sS'120'
p59
S'formula sat instance clause csp variable boolean satisfiability solver cnf random solve count resolution constraint assignment satisfiable solution constraint_satisfaction_problem'
p60
sS'121'
p61
S'memory cache file storage store access read cach disk request write space block content cell cost file_system time device'
p62
sS'122'
p63
S'feature way understanding aspect investigate form context nature relationship fundamental finding model explore insight relevant mechanism understand yet importance'
p64
sS'123'
p65
S'lower_bound circuit polynomial et_al complexity oracle depth bound query deterministic function proof randomize communication_complexity conjecture query_complexity imply input constant'
p66
sS'124'
p67
S'decomposition dictionary atom sparse sparse_representation sparse_code coin decompose signal dictionary_learn coefficient basis representation term overcomplete sparsity denoise represent atomic'
p68
sS'125'
p69
S'question answer known answer_question whether solve natural ask solution pose et_al raise assumption conjecture following open_problem fact interesting much'
p70
sS'126'
p71
S'policy state mdp reinforcement_learn reward stochastic markov_decision_process action optimal pomdp value control value_function iteration optimal_policy discount solution environment dynamic_program'
p72
sS'127'
p73
S'word language automata automaton deterministic state complexity regular_language finite_automata accept finite regular alphabet transducer infinite infinite_word nondeterministic dfa letter'
p74
sS'128'
p75
S'reduction array layout conflict resolution reduce variant resolve lattice complexity lll triple short basis regular preprocess pip ture separation'
p76
sS'129'
p77
S'user online content social information site share web website service activity profile access social_network data internet post twitter people'
p78
sS'167'
p79
S'string compression length compress sequence symbol space bit text encode sigma binary index pattern word alphabet suffix time character'
p80
sS'118'
p81
S'approximation approximate stochastic deterministic probabilistic exact probability error algorithm randomize bound accurate accuracy optimal simulation yield distribution parameter guarantee'
p82
sS'59'
p83
S'constraint solution solve formulation relaxation constrain linear_program variable subject consistency optimization_problem approach optimization solver domain global program dual linear'
p84
sS'58'
p85
S'speech music recognition gesture interaction audio sound speaker dialogue language speech_recognition voice conversation cop spoken acoustic signal sign automatic'
p86
sS'55'
p87
S'estimation sample sampling estimator distribution bayesian data method statistical variance gaussian mixture prior density unknown maximum_likelihood likelihood approximation mean'
p88
sS'54'
p89
S'label unlabel active instance propagation active_learn bag passive semisupervise_learn crf multiple multilabel conditional random_field set efficient mil pairwise node'
p90
sS'57'
p91
S'effect measure difference factor impact observe value behavior model influence significant change examine level finding bias correlation investigate characteristic'
p92
sS'56'
p93
S'linear construction family construct generalize perfect optimal set extension et_al class parameter symmetric property generalization asymmetric nonlinear arbitrary minimal'
p94
sS'51'
p95
S'equation solution method numerical solve diffusion boundary linear operator scheme domain nonlinear flow formulation mesh differential discretization differential_equation integral'
p96
sS'50'
p97
S'cost optimal minimize utility model maximize cost_function solution average time tradeoff aggregate design expected choose strategy sum scenario objective'
p98
sS'53'
p99
S'polynomial degree algebraic coefficient real rational arithmetic root complexity basis integer ideal computation equation multivariate characteristic form zero method'
p100
sS'52'
p101
S'approach method multiple set domain propose_approach generate exploit context information evaluate employ solution perform integrate novel extension way advantage'
p102
sS'164'
p103
S'machine ture_machine computation universal ture boltzmann halt head simulate restrict program computability drive tape computer abstract input rbm deterministic'
p104
sS'199'
p105
S'time high small increase rate low decrease will become long short less reduce lower thus increasing lead limit since'
p106
sS'179'
p107
S'mechanism price auction market agent revenue valuation optimal buyer incentive bidder item equilibrium budget allocation bid seller maximize good'
p108
sS'195'
p109
S'mobile network device wireless user cell coverage access radio cellular_network mobile_device technology service mobility cellular communication deployment base_station femtocell'
p110
sS'194'
p111
S'will role computer play people like world day need place person make every etc change create able get now'
p112
sS'197'
p113
S'representation represent encode compact form symbolic diagram term canonical efficient vector graphical encoding can_represent basis graph capture directly succinct'
p114
sS'178'
p115
S'data monitor sensor sense processing process collect stream aggregation event distribute sensor_network remote big_data realtime volume device data_source storage'
p116
sS'191'
p117
S'distribution probability random limit asymptotic average rate model function exponential mean uniform independent decay expected small finite statistics scale'
p118
sS'190'
p119
S'concept model approach context definition principle view methodology illustrate computational develop way set fundamental process generic unify perspective construct'
p120
sS'193'
p121
S'optimization solution optimize algorithm optimization_problem method objective design genetic_algorithm parameter solve multiobjective objective_function function search optimization_algorithm optimal optimum global'
p122
sS'192'
p123
S'citation journal scientific science publication name indicator cite impact data publish researcher scientist index discipline year reference hindex database'
p124
sS'115'
p125
S'parameter threshold correlation value noise sensitivity correlate tuning dependence level parametric cross performance small choice measure choose degree parameterize'
p126
sS'114'
p127
S'function value class functional continuous variable property boolean_function derivative construct monotone lipschitz symmetric function_f piecewise inverse computation linear sum'
p128
sS'88'
p129
S'cluster data algorithm cluster_algorithm kmean method group partition dataset outlier similarity data_set object classification center similar data_point affinity cluster_head'
p130
sS'89'
p131
S'image method object feature visual pixel region segmentation color video camera scene texture detection shape spatial extract filter descriptor'
p132
sS'111'
p133
S'input output vector generate binary produce encode algorithm set corresponding variable take input_output function reverse original addition term calculate'
p134
sS'110'
p135
S'feature classification classifier method train dataset class classify accuracy data learn performance ensemble svm data_set machine_learn select feature_selection multiclass'
p136
sS'113'
p137
S'prime integer finite_field modulo curve odd factor mod elliptic_curve discrete_logarithm multiplicative positive_integer power padic conjecture multiplication remainder element residue'
p138
sS'112'
p139
S'fast implementation efficiency performance approach speed efficient achieve time implement high accuracy term offer due largescale processing less order_magnitude'
p140
sS'82'
p141
S'class finite set infinite complete computable every complexity polynomial_time contain characterization close theorem function subclass polynomialtime arbitrary characterize complexity_class'
p142
sS'83'
p143
S'module modular composition design process description composite combination generate separation element class compose regular intermediate proper multiple hierarchical enable'
p144
sS'80'
p145
S'video digital content internet multimedia data archive metadata access media repository object iot will preservation copy catalog quality audio'
p146
sS'81'
p147
S'matching tag list match stable bipartite_graph matching_problem preference folksonomy algorithm perfect_matching popular marriage correspondence man bipartite instance pair woman'
p148
sS'86'
p149
S'algorithm convergence iteration iterative adaptive converge gradient update parameter method belief_propagation message_pass loop fix_point bethe approximation optimization scheme solution'
p150
sS'87'
p151
S'logic fragment formula decidable complexity finite firstorder decidability quantifier undecidable satisfiability language firstorder_logic model_check extension temporal_logic pushdown predicate property'
p152
sS'84'
p153
S'condition satisfy set assumption existence property guarantee cal sufficient_condition establish unique sufficient hold generalize uniqueness arbitrary et_al class necessary_sufficient_condition'
p154
sS'85'
p155
S'signal measurement recovery sparse reconstruction recover sparsity compress_sense ell support sampling reconstruct sparse_signal vector compressive_sense minimization noise random sample'
p156
sS'198'
p157
S'verification specification property verify synthesis abstraction safety model_check check model state contract reachability symbolic temporal_logic implementation behavior state_space invariant'
p158
sS'3'
p159
S'node network rout protocol rout_protocol route packet wireless manet path mobility link forward wireless_network communication topology hop sensor_network delay'
p160
sS'177'
p161
S'security attack key secure encryption authentication scheme password protocol cryptography user cipher cryptographic encrypt cryptosystem card public_key trust message'
p162
sS'7'
p163
S'set within form existing share limit capture thus similar across produce information via ability take traditional novel individual knowledge'
p164
sS'108'
p165
S'inequality divergence generalize entropy random_variable distribution bound bregman kullbackleible concentration fisher_information distance poisson generalization information_theory hold power mean independent'
p166
sS'109'
p167
S'expression sum formula function term sery integral moment power coefficient value recursive associate recurrence generalize relation involve identity calculate'
p168
sS'102'
p169
S'code construction vote construct weight linear_code decode distance codeword stbc binary minimum_distance design cyclic_code rate ham parameter election family'
p170
sS'103'
p171
S'resource requirement bandwidth demand load allocation user share allocate network available latency time constraint realtime guarantee efficient capacity meet'
p172
sS'100'
p173
S'service architecture grid distribute resource web_service management environment support infrastructure workflow requirement project component deployment access technology platform heterogeneous'
p174
sS'101'
p175
S'channel gaussian capacity receiver transmitter eavesdropper message capacity_region user rate interference interference_channel broadcast_channel achievable region secrecy outer_bound mac characterize'
p176
sS'106'
p177
S'model density scale critical threshold phase_transition random spatial transition phase spin value regime percolation parameter exponent behavior region ensemble'
p178
sS'107'
p179
S'synchronization clock synchronize timing oscillator asynchronous coupling lock time internal solution couple offset phase external deadlock synchronous concurrent frequency'
p180
sS'104'
p181
S'search heuristic algorithm solution search_space solve prune genetic_algorithm search_algorithm local_search landscape operator fitness finding mutation optimisation crossover branch evolutionary_algorithm'
p182
sS'105'
p183
S'source code distortion source_code rate side_information decod encod compression optimal ratedistortion separation function lossy sequence encode region correlate distribute'
p184
sS'39'
p185
S'variable causal bayesian_network inference model network independence probabilistic markov graphical_model dag represent marginal belief_network dependency probability method graph effect'
p186
sS'38'
p187
S'privacy data private information mechanism sensitive differential_privacy preserve individual release anonymity protect guarantee identity utility concern query leakage differentially'
p188
sS'33'
p189
S'relay scheme source cooperative destination network network_code node transmission protocol strategy forward relay_channel relay_node relay_network decode cooperation link rate'
p190
sS'32'
p191
S'approximation_algorithm algorithm approximation approximation_ratio cut approximate instance set polynomial_time et_al ratio nphard round special_case improve solution maximize approximation_scheme subset'
p192
sS'31'
p193
S'web page face web_page search_engine facial link database google face_image browser face_recognition search information content pagerank expression internet server'
p194
sS'30'
p195
S'social individual spread social_network model opinion dynamics influence behavior process population epidemic human diffusion twitter pattern people interaction activity'
p196
sS'37'
p197
S'lattice operator matroid rough_set closure cover approximation set linear upper reduction construct relation generalize rank integer lower basis secretary'
p198
sS'36'
p199
S'channel receiver performance signal ofdm interference symbol detection linear channel_estimation frequency estimation spread noise mse cdma filter mmse detector'
p200
sS'35'
p201
S'model data inference latent learn topic bayesian infer prior variational hmm topic_model parameter probabilistic capture hierarchical observation latent_variable representation'
p202
sS'34'
p203
S'error correct value correction miss detect due noise erasure tolerance error_correction check cause detection trial paper_withdrawn_name error_rate guarantee recovery'
p204
sS'176'
p205
S'workshop country international conference held satellite proceedings aim university european researcher patent policy event state year national volume_contain public'
p206
sS'60'
p207
S'signal filter frequency optical noise spectral spectrum wavelet wave phase pulse power scatter time design light amplitude response function'
p208
sS'61'
p209
S'topological homology complex persistent topology persistence diagram space group simplicial_complex duality homotopy simplicial invariant knot dual hole cohomology simplex'
p210
sS'62'
p211
S'space dimension subspace manifold dimensional embed point projection multidimensional geometry vector data linear fractal map geometric sphere high_dimensional cube'
p212
sS'63'
p213
S'interval cover rectangle unit pack set guard resp rectangular visibility cup interval_graph subset box overlap proper radius vertical square'
p214
sS'64'
p215
S'local distribute global communication centralize locally decentralize computation neighborhood among coordinate distribute_algorithm globally locality node model information coordination asynchronous'
p216
sS'65'
p217
S'circuit design gate architecture logic reversible hardware device digital power fpga technology synthesis bit implement cmos adder switch voltage'
p218
sS'66'
p219
S'process markov_chain permutation stationary state mix ergodic random_walk time probability distribution markov drift walk sequence stochastic peg generate markov_process'
p220
sS'67'
p221
S'control controller design state control_system feedback plant model dynamics loop stability linear observer controllability disturbance input nonlinear controlled track'
p222
sS'68'
p223
S'task human worker perform automate crowdsource crowd set automatic automatically manual complex core experiment challenge manually engine difficult effort'
p224
sS'69'
p225
S'entropy measure information conditional mutual_information law distribution information_theory renyi relation direct shannon_entropy shannon maximum_entropy informationtheoretic interpretation quantity principle term'
p226
sS'175'
p227
S'item user preference recommendation recommender_system rate rating collaborative_filter movie information recommend recommendation_system user_preference accuracy dataset recommender similarity algorithm hat'
p228
sS'174'
p229
S'character text window recognition handwritten script language letter ocr document keyboard character_recognition word line sliding chinese style digit recognize'
p230
sS'173'
p231
S'online regret reward loss set online_algorithm arm competitive_ratio optimal competitive offline expert bound unknown learn expected achieve stochastic regret_bound'
p232
sS'172'
p233
S'failure fault reliability replication recovery redundancy byzantine fail protection tolerant faulty fault_tolerance diagnosis replica resilience consistency replicate design mechanism'
p234
sS'171'
p235
S'energy power energy_consumption load battery energy_efficiency supply power_consumption wsn energy_harvest transmission demand sensor_node saving grid smart_grid consume source voltage'
p236
sS'170'
p237
S'embed watermark quantization distortion quantizer quantize scheme embedding bit host robustness vector scalar digital compression optimal coefficient signal design'
p238
sS'181'
p239
S'hybrid approach instance combination benchmark solution best effective solve heuristic variant better ant experiment outperform test evaluate pure able'
p240
sS'182'
p241
S'manipulator joint parallel puzzle slice cad workspace kinematic design inverse stiffness machine solution singularity mechanism space robot motion axi'
p242
sS'183'
p243
S'argument consistent claim way will argue fact state mean explain view true principle take definition accept must name statement'
p244
sS'180'
p245
S'user interference channel receiver transmitter beamform mimo power antenna optimal design multiuser scheme transmit transmission maximize csi downlink signal'
p246
sS'2'
p247
S'proof theorem lemma conjecture argument note mathematical combinatorial constructive mathematics classical elementary state statement extension short direct generalize coq'
p248
sS'162'
p249
S'grammar parse sentence parser discourse syntactic natural_language semantic linguistic rule formalism ambiguity phrase generation processing generate representation lexical context'
p250
sS'187'
p251
S'community event network temporal community_structure community_detection overlap modularity detect partition group node detection social_network cluster complex_network scale social finding'
p252
sS'184'
p253
S'model simulation parameter approach process simulate behavior represent real observe realistic interaction behaviour validate predict include investigate data existing'
p254
sS'6'
p255
S'code decode decod ldpc_code channel performance binary ensemble threshold design polar_code codeword decoder bit ldpc decode_algorithm complexity low error_probability'
p256
sS'186'
p257
S'distance metric similarity measure metrics pair similarity_measure pairwise metric_space distance_measure proximity set distance_function approximate median close metric_learn frechet point'
p258
sS'188'
p259
S'robot motion environment trajectory robotic control movement obstacle navigation path planning position autonomous task sensor move mobile_robot vehicle space'
p260
sS'189'
p261
S'message communication information send broadcast transmit receiver communicate transmission channel exchange network sender communications bit forward sent multiple via'
p262
sS'196'
p263
S'data_structure sort query hash space time table list element search support operation memory preprocess query_time key permutation store answer'
p264
sS'185'
p265
S'sequence generator generate shift period length random linear_complexity randomness seed bit extractor short alignment subsequence fibonaccus generation binary_sequence long'
p266
sS'99'
p267
S'graph parameterize parameter digraph edge fix treewidth polynomial hypergraph vertex bound planar_graph admit polynomial_time vertice kernel planar draw fixedparameter_tractable'
p268
sS'98'
p269
S'target fusion radar multiple fuse source estimation sensor aperture sar array joint filter association simultaneous imaging clutter doa approach'
p270
sS'168'
p271
S'bound upper_bound lower_bound tight optimal known establish small improve value constant gap upper_lower_bound term achieve arbitrary ratio fix worstcase'
p272
sS'169'
p273
S'quantum classical state entanglement measurement qubit quantum_state quantum_algorithm quantum_computer entangle quantum_computation quantum_channel physical quantum_mechanics prover protocol communication verifier quantum_compute'
p274
sS'91'
p275
S'fingerprint template biometric iris recognition identification square database latin matching biometrics minutia finger authentication print verification signature ear person'
p276
sS'90'
p277
S'measure complexity randomness algorithmic computable sequence universal kolmogorov_complexity length property random omega tau string probability information_theory complexity_measure description definition'
p278
sS'93'
p279
S'learn train data model task method approach learn_algorithm feature generalization representation machine_learn label domain set deep performance dataset unsupervise'
p280
sS'92'
p281
S'reduce improve method without algorithm increase efficiency reduction achieve efficient need effective thus data avoid significant remove high due'
p282
sS'95'
p283
S'word language text corpus semantic english sentence lexical translation tag linguistic statistical task meaning method lexicon dictionary disambiguation morphological'
p284
sS'94'
p285
S'identification rfid tag water response reader inner shadow self validation outer frequency shallow granule door augment passive soil radio'
p286
sS'97'
p287
S'schedule job time queue task scheduler machine schedule_problem request priority deadline schedule_algorithm arrival processor server service process minimize realtime'
p288
sS'96'
p289
S'component configuration chain principal unit componentbase reconfiguration software_component interface set description initial personality individual goal complex configure composition decompose'
p290
sS'11'
p291
S'student learn course university education teaching educational teacher learner elearn school knowledge skill computer environment project activity academic train'
p292
sS'10'
p293
S'feedback delay mode bit rate codebook link back information quantization limit_feedback perfect quantize strategy feed feedback_channel spatial noisy gain'
p294
sS'13'
p295
S'language model specification semantics formal specify abstract concurrent calculus refinement formalism process express reasoning syntax property description object implementation'
p296
sS'12'
p297
S'level hierarchy hierarchical emotion multilevel taxonomy emotional merge flat affective within hierarchical_structure lower collapse hierarchically high_level nest twolevel scale'
p298
sS'15'
p299
S'cloud server service cloud_compute client resource provider user data_center infrastructure request workload host cost internet virtual_machine storage access solution'
p300
sS'14'
p301
S'evaluation quality measure evaluate method experiment approach data perform test set precision experimental real metrics accuracy assess good best'
p302
sS'17'
p303
S'material device thermal temperature process surface simulation flow pressure layer heat fluid mem beam mechanical micro effect substrate gas'
p304
sS'16'
p305
S'agent model team leader environment multiagent_system coalition multiagent action behavior formation distribute individual coordination cooperative act interaction communication state'
p306
sS'19'
p307
S'graph edge vertice subgraph vertex connect clique node cut degree tree partition induce bipartite_graph connectivity diameter random_graph small contain'
p308
sS'18'
p309
S'performance design improve term achieve optimize evaluate perform best effect enhance impact increase scenario high better exploit improvement level'
p310
sS'117'
p311
S'way make will choice good need goal without like easy get situation approach better point always able far original'
p312
sS'116'
p313
S'ranking score rank pagerank team ordinal aggregation list sport tournament expert vote preference candidate measure pairwise accord competition top'
p314
sS'151'
p315
S'log epsilon constant algorithm bound log_n factor least small cdot ell running_time every high_probability improve rho approximate olog frac'
p316
sS'150'
p317
S'consensus average distribute network convergence state agreement node topology asynchronous communication neighbor converge reach graph update byzantine pebble value'
p318
sS'153'
p319
S'method propose_method efficient effective construct improve calculate known traditional fast advantage experiment implement direct including test produce existing_method evaluate'
p320
sS'152'
p321
S'map mapping facility visualization set onto pin som barrier client visualize construct space reduce selforganize facility_location cca preserve logistic'
p322
sS'155'
p323
S'approach existing spreadsheet solution due address limitation limit difficult lack overcome since difficulty available control practice effective advantage need'
p324
sS'154'
p325
S'equivalence bisimulation probabilistic net transition transition_system bisimilarity process simulation petri_net label automata relation asynchronous semantics behaviour action refinement branch'
p326
sS'157'
p327
S'game player strategy equilibrium payoff equilibria play win nash_equilibrium game_theory move objective strategic existence action nash_equilibria outcome coalition twoplayer'
p328
sS'156'
p329
S'dynamic change time update static temporal maintain evolve dynamically evolution track adapt deletion incremental sequence algorithm event insertion addition'
p330
sS'159'
p331
S'interface software library implement implementation user program design code language support package interactive format available feature file java platform'
p332
sS'158'
p333
S'path cycle time edge flow algorithm short_path graph length weight short direct hamiltonian spanner pair tour weighted stretch direct_graph'
p334
sS'48'
p335
S'peer stream network round node overlay distribute peertopeer protocol content chunk p_network time model token file gossip bittorrent distribute_algorithm'
p336
sS'49'
p337
S'type relation attribute entity dependency data object relationship relational functional form value represent name concept feature including link representation'
p338
sS'46'
p339
S'business organization management customer service company process model enterprise industry market risk project actor support factor government economic business_process'
p340
sS'47'
p341
S'cooperation trust individual social reputation interaction behavior mechanism incentive cooperative good group model evolutionary dilemma population cooperate among cooperator'
p342
sS'44'
p343
S'scheme signature propose_scheme scheme_base design existing efficient high proxy addition novel et_al advantage verify optimal paper_propose term scheme_achieve propose_new'
p344
sS'45'
p345
S'shape tile assembly selfassembly til tiling temperature tile_assembly contour construction square type mould rigid slime selfassemble plane strand bar'
p346
sS'42'
p347
S'term set property generalize establish connection characterization characterize certain mean fact arbitrary type similar yield concept associate independent motivate'
p348
sS'43'
p349
S'algorithm computation complexity solution solve computational efficient time fast approach efficiently method exact small reduce perform approximate computationally computational_complexity'
p350
sS'40'
p351
S'parallel processor architecture performance implementation core processing memory computation hardware algorithm gpu simulation multicore parallelism cpu gpus cluster mapreduce'
p352
sS'41'
p353
S'method algorithm sparse regularization norm convex solve optimization minimization regularize gradient solution linear term sparsity dual regression convergence minimize'
p354
sS'1'
p355
S'pattern mine data data_mine database discovery knowledge frequent discover association_rule extract rule support generate item log approach frequent_itemset process'
p356
sS'5'
p357
S'complex model design way criterion involve thus implement develop without specific make difficult generate must able since function operation'
p358
sS'9'
p359
S'vehicle traffic city urban road route vehicular car travel mobility transportation safety driver pedestrian speed scenario emergency time vanet'
p360
sS'146'
p361
S'color graph edge graph_g vertice every vertex conjecture cycle least colour degree connect path chromatic_number denote adjacent odd proper'
p362
sS'147'
p363
S'test generation defect t_case coverage tester group_test defective inspection item generate pool testable suite whether error fault detection geological'
p364
sS'144'
p365
S'operation multiplication knowledge addition fast fourier_transform dft perform fft implementation convolution binary complexity division discrete modular computation inverse multiply'
p366
sS'145'
p367
S'type term calculus reduction higherorder rewrite termination type_system recursive lambdacalculus semantics proof rule type_theory extension lambda_calculus language definition function'
p368
sS'142'
p369
S'uncertainty belief probability decision probabilistic reasoning evidence knowledge uncertain qualitative represent revision model inference information decision_making bayesian rule event'
p370
sS'143'
p371
S'set subset element minimal contain collection intersection cardinality construct union family corresponding generate represent certain finite_set disjoint form whose'
p372
sS'140'
p373
S'packet network delay throughput traffic transmission queue protocol link rate buffer tcp flow multicast performance congestion channel layer service'
p374
sS'141'
p375
S'document search text query retrieval term index collection extract topic keyword search_engine extraction information_retrieval user relevant word wikipedia content'
p376
sS'148'
p377
S'algebra category algebraic operation categorical finite poset construction operator set monad object commutative relation functor semiring free semantics construct'
p378
sS'149'
p379
S'value weight weighted index sum assignment assign power equal vote measure average every generalize choose associate ratio degree threshold'
p380
sS'77'
p381
S'strategy selection select adaptive stage criterion choose sequential adaptation process random choice achieve performance time accord adapt effective set'
p382
sS'76'
p383
S'location track sensor localization position measurement spatial accuracy environment information placement estimation target calibration object place accurate error region'
p384
sS'75'
p385
S'object repair storage node code data bandwidth regenerate_code distribute_storage_system fail distribute erasure_code store tradeoff fragment exact container construction point'
p386
sS'74'
p387
S'prediction predict model forecast time_sery predictive data future accuracy predictor ann regression variable artificial_neural_network accurate neural_network weather time error'
p388
sS'73'
p389
S'algorithm time efficient propose_algorithm improve existing fast optimal known guarantee variant implementation set achieve design best running_time improvement run'
p390
sS'72'
p391
S'rule fuzzy soft fuzzy_logic set fuzzy_set crisp handle membership linguistic reasoning chr decision concept combination rulebase rough_set uncertainty inference_system'
p392
sS'71'
p393
S'channel spectrum primary sense secondary secondary_user cognitive_radio primary_user interference cognitive spectrum_sense network sus access throughput user transmission opportunistic cognitive_radio_network'
p394
sS'70'
p395
S'protocol secure party security share adversary communication key secret alice bob computation bit session secret_key message public participant exchange'
p396
sS'79'
p397
S'technology design challenge will environment information need future virtual potential advance emerge enable world change physical develop key opportunity'
p398
sS'78'
p399
S'program language execution code logic_program prolog implementation program_language abstract loop implement compiler instruction termination support debug asp java runtime'
p400
s.