(dp0
S'133'
p1
S'data privacy information private individual sensitive preserve record dataset use release differential_privacy data_set miss database value analysis statistical contain'
p2
sS'132'
p3
S'number size scale linear parameter show value large give factor grow require beta ratio linearly whose determine increase range'
p4
sS'131'
p5
S'compression code source compress encode redundancy universal bit sequence lossless scheme lossy length ratio binary huffman data_compression data symbol'
p6
sS'130'
p7
S'word text language corpus use sentence semantic system speech english linguistic lexical tag syntactic translation task parse natural_language discourse'
p8
sS'137'
p9
S'algorithm present propose efficient compare propose_algorithm implementation fast performance local algorithm_base paper new version several improve standard also computation'
p10
sS'136'
p11
S'query database data schema xml answer relational view join sql transaction store update data_warehouse relational_database support tuple index operator'
p12
sS'135'
p13
S'ontology semantic knowledge domain annotation concept language use semantic_web description web_service rdf approach system resource semantics web reasoning integration'
p14
sS'134'
p15
S'program language specification verification use system property abstract execution implementation abstraction semantics verify code check specify implement tool describe'
p16
sS'139'
p17
S'packet delay throughput queue network transmission traffic rate buffer channel link schedule protocol service performance wireless_network wireless arrival layer'
p18
sS'138'
p19
S'code decode construction decod error ldpc_code binary codeword use weight design distance construct minimum_distance linear_code erasure decode_algorithm performance convolutional_code'
p20
sS'24'
p21
S'space vector dimension lattice subspace manifold embed linear dimensional projection point metric show distance multidimensional geometric give map pca'
p22
sS'25'
p23
S'hypothesis music sound audio explanation evidence claim musical accept explain song auditory reject paradigm pitch argument support frequency signal'
p24
sS'26'
p25
S'analysis use technique method analyze tool base application order approach present analyse provide apply frame complex work developed perform'
p26
sS'27'
p27
S'set subset family let every integer element minimal cal denote gamma number give exist leq call cardinality define contain'
p28
sS'20'
p29
S'heuristic search instance problem sat solver algorithm solve solution use show satisfiability clause random benchmark local_search variable backtrack branch'
p30
sS'21'
p31
S'equivalence system process bisimulation notion semantics refinement probabilistic relation weak petri_net transition transition_system operator property calculus concurrent label simulation'
p32
sS'22'
p33
S'parallel processor performance architecture use implementation memory application core hardware compute processing computation system gpu machine multicore simulation parallelism'
p34
sS'23'
p35
S'pattern mine data_mine data rule discovery database discover frequent association_rule extract knowledge use algorithm extraction approach process association identify'
p36
sS'28'
p37
S'polynomial degree algebraic field coefficient number integer compute give real prime rational root computation arithmetic algorithm finite_field basis ideal'
p38
sS'29'
p39
S'channel spectrum primary sense secondary cognitive cognitive_radio secondary_user primary_user interference spectrum_sense access sus network throughput propose band transmission cognitive_radio_network'
p40
sS'0'
p41
S'game player strategy equilibrium payoff equilibria coalition play show cooperation nash_equilibrium win game_theory move strategic objective nash_equilibria study outcome'
p42
sS'4'
p43
S'property class show define notion definition generalize study general can introduce call natural particular several structure give well new'
p44
sS'8'
p45
S'time use increase high can change reduce large rate cost also decrease improve however factor increasing system number low'
p46
sS'119'
p47
S'prediction predict forecast model time_sery use market predictive financial trade future stock correlation predictor regression accuracy method variable strategy'
p48
sS'120'
p49
S'image use method watermark pixel color wavelet segmentation transform technique region embed base digital texture filter edge resolution visual'
p50
sS'121'
p51
S'peer vote election rule voter candidate system manipulation peertopeer overlay leader control p_network bittorrent protocol winner majority manipulate party'
p52
sS'122'
p53
S'search document query ranking result retrieval search_engine index text base term use collection information_retrieval keyword rank relevant topic web'
p54
sS'123'
p55
S'vehicle traffic trajectory urban city road mobility speed travel car safety route vehicular flight area satellite driver transportation time'
p56
sS'124'
p57
S'channel capacity rate source message gaussian receiver distortion show region use code capacity_region feedback decode case decod side_information achievable'
p58
sS'125'
p59
S'task data approach learn target method problem large model domain experiment show demonstrate dataset can set evaluate application stateoftheart'
p60
sS'126'
p61
S'point curve surface plane geometric convex space line polygon region triangulation geometry planar boundary two topological disk distance rectangle'
p62
sS'127'
p63
S'process use reduce reduction can result show original technique procedure without one state remove may thus apply problem eliminate'
p64
sS'128'
p65
S'optimization genetic_algorithm problem search evolutionary fitness use operator solution selection algorithm evolutionary_algorithm function local population mutation landscape evolution optimisation'
p66
sS'129'
p67
S'web content server file client user access page request internet cache information cach use data web_page multimedia browser video'
p68
sS'118'
p69
S'theory category algebra mathematical concept definition algebraic notion formal mathematics define computational provide classical law calculus general describe foundation'
p70
sS'59'
p71
S'can use however problem many one make require may often need even thus difficult simple since way due also'
p72
sS'58'
p73
S'framework model approach base provide system propose present problem application demonstrate different can extend example well allow develop within'
p74
sS'55'
p75
S'approach use base present method procedure construction partial apply give technique propose construct idea combine standard compare advantage design'
p76
sS'54'
p77
S'constraint consistency csp variable global domain language value solve constraint_satisfaction_problem puzzle solver soft propagation set instance problem arc boolean'
p78
sS'57'
p79
S'policy state reward learn stochastic action regret problem optimal mdp online markov_decision_process reinforcement_learn arm pomdp observation value decision expected'
p80
sS'56'
p81
S'product conjecture block sum two prove construct square power paper odd double also cartesian state hypercube mod direct result'
p82
sS'51'
p83
S'use material field surface wave process device temperature structure thermal particle simulation beam pressure water light sensor effect layer'
p84
sS'50'
p85
S'tree formula fragment logic variable show clause model_check root satisfiability ltl structure quantifier decidable firstorder complexity finite temporal_logic cnf'
p86
sS'53'
p87
S'distance location spatial position localization region use metric information place placement area geographic measure locate base zone move point'
p88
sS'52'
p89
S'equation solution method operator numerical use problem solve scheme system boundary linear integral present domain nonlinear mesh approximation discrete'
p90
sS'115'
p91
S'network rout node protocol traffic packet link route rout_protocol mobility wireless path manet delay internet forward multicast performance topology'
p92
sS'114'
p93
S'log epsilon delta time query constant alpha use give log_n size bound show algorithm space data_structure olog_n high_probability lower_bound'
p94
sS'88'
p95
S'quantum classical state entanglement protocol measurement qubit quantum_state quantum_algorithm communication quantum_computer quantum_system entangle quantum_computation quantum_channel show quantum_mechanics physical prover'
p96
sS'89'
p97
S'mechanism price auction market agent revenue valuation optimal incentive allocation budget buyer utility item bidder equilibrium good maximize bid'
p98
sS'111'
p99
S'network user interference cell base_station mobile cellular_network wireless downlink coverage radio uplink wireless_network cellular antenna bss power deployment performance'
p100
sS'110'
p101
S'proof theorem prove result conjecture show lemma class theory give version imply argument strong complete also exist weak statement'
p102
sS'113'
p103
S'learn student course university use education learner teaching educational teacher environment school elearn knowledge skill tool train concept grade'
p104
sS'112'
p105
S'community network social social_network influence individual structure group link community_structure interaction modularity overlap relationship analysis information member identify diffusion'
p106
sS'82'
p107
S'entropy measure inequality information divergence distribution mutual_information conditional generalize random_variable derive information_theory renyi show shannon_entropy quantity shannon relative_entropy distance'
p108
sS'83'
p109
S'fault spreadsheet failure repair error risk node storage reliability fail bandwidth recovery data diagnosis regenerate_code resilience redundancy code distribute_storage_system'
p110
sS'80'
p111
S'technique base propose approach efficient however design efficiency require due well improve order hybrid implement achieve exploit paper dynamic'
p112
sS'81'
p113
S'circuit video gate digital design reversible logic use synthesis propose adder depth output voice voip bit stream input multiplier'
p114
sS'86'
p115
S'component design level architecture application base requirement order support layer describe model allow composition different element specification mechanism description'
p116
sS'87'
p117
S'use measure quality evaluation evaluate performance study different metrics analysis compare identify metric comparison assess experiment factor level test'
p118
sS'84'
p119
S'channel system receiver design propose signal performance modulation mimo symbol constellation diversity ofdm transmit linear antenna code interference multiuser'
p120
sS'85'
p121
S'name book draw art new cross style century history cultural crossing drawing culture creative idea people character language coin'
p122
sS'3'
p123
S'power system design energy use load switch device voltage optical circuit hardware frequency technology supply demand line current power_consumption'
p124
sS'7'
p125
S'matching pair similarity score two match alignment pairwise correspondence similar similarity_measure show difference one comparison among distance give analogy'
p126
sS'108'
p127
S'patient medical disease use clinical health data cancer diagnosis segmentation brain imaging eeg treatment drug breast signal tumor base'
p128
sS'109'
p129
S'problem cut approximation_algorithm approximation matroid give algorithm approximation_ratio instance minimum approximate improve result pack round set relaxation maximum bin'
p130
sS'102'
p131
S'context can set may form embed effect model one result term two within particular without share type involve link'
p132
sS'103'
p133
S'dynamics behavior individual process evolution system interaction change population pattern study opinion time effect mechanism can evolve phenomenon observe'
p134
sS'100'
p135
S'preference cover aggregation choice set aggregate alternative prefer ranking ordinal rank pareto consider elicitation element partial_order extension multicriterion order'
p136
sS'101'
p137
S'schedule time job task dynamic scheduler static realtime deadline schedule_problem resource process processor execution priority can schedule_algorithm propose order'
p138
sS'106'
p139
S'service technology business mobile will internet organization management information customer challenge development company access world issue environment change infrastructure'
p140
sS'107'
p141
S'problem show complexity give parameterize polynomial polynomial_time prove result parameter hard fix reduction instance npcomplete size nphard even solvable'
p142
sS'104'
p143
S'stream synchronization window asynchronous clock time data_stream timing update chunk sketch pass frequency element synchronous lock sliding oscillator delay'
p144
sS'105'
p145
S'threshold random spin model partition_function ensemble belief_propagation phase_transition message_pass free_energy couple replica bethe statistical_physics map state approximation approximate critical'
p146
sS'39'
p147
S'logic semantics logic_program reasoning logical rule program theory language proof formula operator system extension show extend calculus propositional asp'
p148
sS'38'
p149
S'system use component realtime behavior nous dan pour autonomous consider une que complex_system sur par system_design subsystem concept base'
p150
sS'33'
p151
S'relation term expression extend give extension expansion base generalize paper formula functional introduce derive present new result discuss also'
p152
sS'32'
p153
S'scheme performance detection use propose base show improve design compare detect parameter term probability detector different rate system paper'
p154
sS'31'
p155
S'layer neural_network network learn train deep input neuron model spike neural multilayer architecture unit output use artificial_neural_network activation weight'
p156
sS'30'
p157
S'problem solution solve consider constraint formulation computational general several search finding optimization_problem many technique solve_problem find application first number'
p158
sS'37'
p159
S'type proof workshop term termination rewrite calculus higherorder reduction semantics program system prove held conference language lambdacalculus type_system recursive'
p160
sS'36'
p161
S'machine robot manipulator motion parallel joint workspace kinematic configuration design trajectory space stiffness position mechanism robotic inverse mode arm'
p162
sS'35'
p163
S'use one new result can rule set simple operation allow obtain also call version possible way paper modify standard'
p164
sS'34'
p165
S'use interface tool software application code implementation program library module system implement language development support package platform provide design'
p166
sS'60'
p167
S'relay network scheme cooperative source network_code destination protocol transmission node cooperation two forward message strategy relay_channel decode relay_node transmit'
p168
sS'61'
p169
S'grid data distribute service application monitor system resource architecture infrastructure project workflow management environment compute scientific digital technology experiment'
p170
sS'62'
p171
S'will question part study work paper role answer play give also different many first like consider important theory case'
p172
sS'63'
p173
S'attack security trust detect secure malicious authentication network threat mechanism password attacker detection vulnerability protocol protect protection card monitor'
p174
sS'64'
p175
S'variable causal inference bayesian_network model network probabilistic structure independence dependency probability markov dag represent graphical_model conditional tree learn show'
p176
sS'65'
p177
S'universal computable computation randomness complexity ture_machine cellular_automata algorithmic sequence set ture machine random finite string infinite kolmogorov_complexity computability construction'
p178
sS'66'
p179
S'order list sort element use binary comparison black hole stable key give fractional permutation sort_algorithm integer number enumeration white'
p180
sS'67'
p181
S'permutation chain transform flip stack reverse operation section sort transposition reversal checkpoint length slice prefix shuffle simple process sery'
p182
sS'68'
p183
S'algorithm time input problem compute fast give running_time complexity present computation size output number first algorithm_compute improve bound count'
p184
sS'69'
p185
S'cost weight optimal problem give weighted minimize algorithm online sum maximum consider assignment minimum total case assign expected machine'
p186
sS'2'
p187
S'test generate generation generator use coverage tool base t_case automatic technique output defect random suite automate error check tester'
p188
sS'6'
p189
S'uncertainty belief decision rule probability theory reasoning probabilistic evidence update uncertain knowledge qualitative revision decision_making conflict fusion represent inference'
p190
sS'99'
p191
S'bound lower_bound upper_bound show result prove tight complexity case obtain give constant et_al gap known improve study general size'
p192
sS'98'
p193
S'feature classification learn classifier label train use class data accuracy performance dataset algorithm svm ensemble classify machine_learn example generalization'
p194
sS'91'
p195
S'problem algorithm method optimization convergence solve solution convex constraint optimization_problem iteration gradient dual linear minimization propose regularization norm iterative'
p196
sS'90'
p197
S'sampling sample distribution estimate bias markov_chain use random_walk random uniform method probability importance monte_carlo mcmc variance sampling_method mix gibb'
p198
sS'93'
p199
S'fuzzy interval attribute value fuzzy_logic use base rule rough_set membership fuzzy_set operator concept propose crisp uncertainty linguistic relation order'
p200
sS'92'
p201
S'control system controller stability state design feedback dynamics linear switch control_system nonlinear plant propose input track dynamical_system condition robust'
p202
sS'95'
p203
S'distribute protocol communication message node consensus network round algorithm can communicate process broadcast exchange neighbor require asynchronous byzantine use'
p204
sS'94'
p205
S'agent robot environment planning action plan task use model state team domain planner robotic system autonomous control multiagent_system multiagent'
p206
sS'97'
p207
S'image feature recognition track use video face object system camera database motion visual method character scene fingerprint detection extract'
p208
sS'96'
p209
S'approximation approximate deterministic result error exact probabilistic guarantee provide show can compute randomize probability computation bound obtain even simple'
p210
sS'11'
p211
S'function compute continuous class set show space discrete give define boolean_function variable linear computation input property value computable prove'
p212
sS'10'
p213
S'protein biological gene sequence genome molecular cell dna structure species molecule biology reaction chemical genetic motif organism interaction computational'
p214
sS'13'
p215
S'result large one however study many report several standard two suggest literature compare finding found well experiment number find'
p216
sS'12'
p217
S'sequence length period shift short generate instruction number long linear_complexity periodic subsequence fibonaccus property letter binary_sequence give correlation show'
p218
sS'15'
p219
S'flow table seed piece network capacity flow_network flow_problem read small multicommodity sink island lookup contingency unit incoming cfa minimumcost'
p220
sS'14'
p221
S'citation journal scientific science research paper publication article name indicator field impact cite publish researcher data year index university'
p222
sS'17'
p223
S'model data learn parameter estimate bayesian distribution prior inference use estimation mixture likelihood statistical regression approach sample density posterior'
p224
sS'16'
p225
S'security secure key protocol scheme eavesdropper attack secret message use encryption cryptography secrecy cryptographic cipher bit signature secret_key cryptosystem'
p226
sS'19'
p227
S'memory space store label array data_structure storage operation size access cell read disk block update support time layout scan'
p228
sS'18'
p229
S'signal sparse recovery measurement reconstruction sparsity recover dictionary ell compress_sense reconstruct support sparse_signal compressive_sense vector minimization sampling basis coefficient'
p230
sS'117'
p231
S'information event temporal process time state data model change action can knowledge context represent identify occur occurrence relevant contain'
p232
sS'116'
p233
S'object transformation shape hash deletion operation model rotation invariant use class insertion reference solution transform case define translation edit'
p234
sS'48'
p235
S'channel receiver transmitter interference feedback fade power user capacity csi mimo signal optimal show link scheme case beamform interference_channel'
p236
sS'49'
p237
S'model simulation base process propose result show stochastic state parameter describe can dynamic simulate study allow data predict new'
p238
sS'46'
p239
S'human system computer interaction use virtual cognitive environment activity intelligence people control visual machine physical interactive interface task user'
p240
sS'47'
p241
S'method use kernel base propose propose_method compare method_base show approach result apply fast obtain accuracy comparison two calculate combine'
p242
sS'44'
p243
S'filter adaptive design algorithm propose signal bank noise parameter adaptation linear response performance optimization base use reducedrink recursive suppression'
p244
sS'45'
p245
S'optimal show tradeoff performance achieve complexity require large small average limit loss cost result reduce size compare case practical'
p246
sS'42'
p247
S'map mapping perturbation robust outlier robustness use chaotic outly show square onto latin obtain singular change generate perturb call'
p248
sS'43'
p249
S'language word automata automaton state complexity deterministic finite infinite class show prove regular accept regular_language finite_automata decidable problem set'
p250
sS'40'
p251
S'condition set give result general property case criterion prove characterize establish local existence characterization satisfy derive base arbitrary weak'
p252
sS'41'
p253
S'item recommendation rate recommender_system rating collaborative_filter movie base recommend reputation preference algorithm accuracy recommendation_system similarity online recommender new prediction'
p254
sS'1'
p255
S'user online content twitter social tag activity people social_media email study site spam post website social_network share new sentiment'
p256
sS'5'
p257
S'strategy multiple use single different source one can case mix scenario individual present joint separation result consider simultaneously may'
p258
sS'9'
p259
S'type value different measure base parameter two consider one define paper characteristic identify also property three present various relate'
p260
sS'146'
p261
S'matrix rank tensor eigenvalue decomposition entry vector spectral column row symmetric eigenvector sparse product lowrank compute block linear norm'
p262
sS'147'
p263
S'software process design development project system requirement model tool support product engineering approach methodology activity research practice effort software_development'
p264
sS'144'
p265
S'energy sensor node sensor_network sensor_node power energy_consumption wireless_sensor_network data wsn sense wireless battery communication distribute network use energy_efficiency monitor'
p266
sS'145'
p267
S'research paper discuss field application present issue area work review focus new result development survey system describe various also'
p268
sS'142'
p269
S'cluster partition data use algorithm cluster_algorithm kmean group dataset base method similarity center data_set approach classification similar distance overlap'
p270
sS'143'
p271
S'resource service cloud system server cloud_compute application storage distribute compute cost workload use network provider replication demand performance request'
p272
sS'140'
p273
S'path depth merge short_path loop identity walk length pair short along pin branch edge find two call simple splitting'
p274
sS'141'
p275
S'index threshold size large small power value group_test pool defective set call test compute show select activate identify threshold_value'
p276
sS'148'
p277
S'one can show case give two result set consider possible may even simple known particular prove without exist assumption'
p278
sS'149'
p279
S'distribution probability random show asymptotic average limit rate value density function derive consider result give analysis stochastic large mean'
p280
sS'77'
p281
S'structure representation represent hierarchical hierarchy encode structural describe set complex can term form construct compact define description feature diagram'
p282
sS'76'
p283
S'group symmetry subgroup algebra finite element automorphism generate symmetric product cyclic free semigroup order class give structure member permutation'
p284
sS'75'
p285
S'user system information share profile propose individual fairness access resource service utility select require different without user_can base fair'
p286
sS'74'
p287
S'estimate estimation noise estimator error measurement signal observation parameter use noisy variance accuracy show gaussian sensor robust derive linear'
p288
sS'73'
p289
S'network node model link graph topology spread connectivity degree property complex_network structure edge connect epidemic random degree_distribution large topological'
p290
sS'72'
p291
S'graph edge color vertice vertex cycle graph_g connect every tree subgraph degree clique maximum prove minimum path planar_graph label'
p292
sS'71'
p293
S'use can device application provide new compute information way available order potential enable need thus current many allow open'
p294
sS'70'
p295
S'first two second one use three phase base third stage step paper level propose finally order case apply contribution'
p296
sS'79'
p297
S'tile fractal polytope assembly selfassembly dimension system tile_assembly til temperature tiling shape clone construction set realization type square tau'
p298
sS'78'
p299
S'string grammar parse tree symbol text character length suffix word parser sigma use index space substring give alphabet compress'
p300
s.