(lp0
(dp1
S'120'
p2
S'0.10206600617330024'
p3
sS'70'
p4
S'0.18598391728862496'
p5
sa(dp6
S'9'
p7
S'0.053102659899382766'
p8
sS'111'
p9
S'0.06535977598752372'
p10
sS'72'
p11
S'0.05869621961206933'
p12
sS'71'
p13
S'0.0711039805318412'
p14
sa(dp15
S'45'
p16
S'0.06747481516348354'
p17
sS'39'
p18
S'0.056692873905820965'
p19
sS'101'
p20
S'0.07214358372185323'
p21
sS'59'
p22
S'0.05081111913830511'
p23
sS'58'
p24
S'0.09512638426380707'
p25
sa(dp26
S'11'
p27
S'0.14282614009949013'
p28
sg20
S'0.051680488766175356'
p29
sg24
S'0.050936056594244584'
p30
sS'149'
p31
S'0.07613855554041166'
p32
sa(dp33
S'80'
p34
S'0.12722223057905185'
p35
sS'95'
p36
S'0.1626982189763625'
p37
sS'13'
p38
S'0.07401869574632221'
p39
sa(dp40
S'91'
p41
S'0.09623891320430486'
p42
sg34
S'0.14413067264667337'
p43
sg16
S'0.2670559219555995'
p44
sS'137'
p45
S'0.06509491222564703'
p46
sa(dp47
S'110'
p48
S'0.06308531986400047'
p49
sg24
S'0.050936056594244584'
p50
sa(dp51
S'106'
p52
S'0.22372651995807502'
p53
sS'40'
p54
S'0.08030399988948758'
p55
sg4
S'0.06086183490752324'
p56
sa(dp57
S'61'
p58
S'0.05237179194196485'
p59
sS'63'
p60
S'0.06102372419427704'
p61
sS'35'
p62
S'0.07541892086288816'
p63
sS'34'
p64
S'0.10486707263373511'
p65
sa(dp66
g38
S'0.2568226988470558'
p67
sg24
S'0.050936056594244605'
p68
sa(dp69
g58
S'0.05723956810196935'
p70
sg62
S'0.06714770665744299'
p71
sa(dp72
S'8'
p73
S'0.06457996836712458'
p74
sS'97'
p75
S'0.12247058980812718'
p76
sg62
S'0.1305907457654442'
p77
sa(dp78
S'117'
p79
S'0.062536358995704'
p80
sS'30'
p81
S'0.08555714534923144'
p82
sg22
S'0.1642079510055251'
p83
sa(dp84
S'0'
p85
S'0.22140120281580164'
p86
sg22
S'0.21530743467024416'
p87
sg4
S'0.05623098026403973'
p88
sa(dp89
S'55'
p90
S'0.06939328051959284'
p91
sS'22'
p92
S'0.0847342508886814'
p93
sS'52'
p94
S'0.2492805643470426'
p95
sa(dp96
S'37'
p97
S'0.07827709556217881'
p98
sa(dp99
S'25'
p100
S'0.12050518546140954'
p101
sS'73'
p102
S'0.12352733606974704'
p103
sg13
S'0.06751353953606078'
p104
sa(dp105
g85
S'0.2088889849099636'
p106
sS'103'
p107
S'0.17598190801419553'
p108
sa(dp109
S'47'
p110
S'0.062263358809723286'
p111
sg81
S'0.1143201669804776'
p112
sg94
S'0.05314195738654663'
p113
sg11
S'0.11310610011475568'
p114
sg34
S'0.05171819532336262'
p115
sS'107'
p116
S'0.06800848506808087'
p117
sa(dp118
g97
S'0.0975034700725005'
p119
sg54
S'0.05152482742636527'
p120
sa(dp121
g97
S'0.283974608164276'
p122
sg54
S'0.07680417573663997'
p123
sa(dp124
g85
S'0.18136715953501784'
p125
sS'130'
p126
S'0.062367719799571876'
p127
sg102
S'0.10358399683777736'
p128
sg107
S'0.08456488830633933'
p129
sa(dp130
g73
S'0.08648958689548814'
p131
sg62
S'0.10868112723708066'
p132
sg75
S'0.11151578054394541'
p133
sa(dp134
g18
S'0.0959750753514319'
p135
sg22
S'0.05081111913830512'
p136
sg24
S'0.05584418281819616'
p137
sS'148'
p138
S'0.05767507374278313'
p139
sS'127'
p140
S'0.05086396303590396'
p141
sg20
S'0.05643070314360888'
p142
sS'87'
p143
S'0.053495189725346684'
p144
sa(dp145
S'147'
p146
S'0.09125018206904238'
p147
sS'134'
p148
S'0.1245994301260444'
p149
sa(dp150
g36
S'0.057141096690657193'
p151
sg73
S'0.12714680126518263'
p152
sS'51'
p153
S'0.09300765885397001'
p154
sS'10'
p155
S'0.0834200204917831'
p156
sa(dp157
g102
S'0.06997744613466539'
p158
sg143
S'0.0636374460608909'
p159
sS'126'
p160
S'0.29928604165178485'
p161
sa(dp162
S'99'
p163
S'0.05537370964104355'
p164
sg38
S'0.1428615517269299'
p165
sS'145'
p166
S'0.052340149171601846'
p167
sg24
S'0.06207853638572709'
p168
sg4
S'0.0686794992466402'
p169
sa(dp170
g38
S'0.10724765460728347'
p171
sg166
S'0.09280396109809559'
p172
sg24
S'0.07087939582621423'
p173
sa(dp174
S'102'
p175
S'0.07498430222441797'
p176
sg52
S'0.05852854223041101'
p177
sg24
S'0.055844182818196135'
p178
sS'125'
p179
S'0.05189248134061815'
p180
sa(dp181
g175
S'0.0985536230917845'
p182
sS'18'
p183
S'0.056659124781155715'
p184
sg52
S'0.08209786309777754'
p185
sg24
S'0.05584418281819614'
p186
sg179
S'0.05189248134061813'
p187
sa(dp188
g52
S'0.06431480934255177'
p189
sg81
S'0.08555714534923145'
p190
sg22
S'0.09440626369363134'
p191
sS'20'
p192
S'0.06103160903510848'
p193
sa(dp194
g97
S'0.3389696901881313'
p195
sg54
S'0.10822993689312871'
p196
sS'6'
p197
S'0.05676041751678'
p198
sa(dp199
g155
S'0.1017209429518012'
p200
sg153
S'0.11130858131398813'
p201
sg73
S'0.0722440338851282'
p202
sa(dp203
g38
S'0.0512421522320907'
p204
sg192
S'0.06987190818270546'
p205
sa(dp206
g166
S'0.19144330952642674'
p207
sa(dp208
g90
S'0.064113285333628'
p209
sg143
S'0.06601975218281093'
p210
sg179
S'0.05584087590583652'
p211
sa(dp212
g153
S'0.07143962481864766'
p213
sa(dp214
g107
S'0.2661432274500431'
p215
sS'27'
p216
S'0.08655748534267091'
p217
sg11
S'0.06268436331583428'
p218
sa(dp219
g7
S'0.08487529956451856'
p220
sg110
S'0.11380451579065552'
p221
sg179
S'0.09117468278622907'
p222
sa(dp223
g22
S'0.06833059353142597'
p224
sS'46'
p225
S'0.057059935495710486'
p226
sS'62'
p227
S'0.09880393931060256'
p228
sg11
S'0.07699714207208748'
p229
sS'128'
p230
S'0.14769146987513174'
p231
sg36
S'0.08459248038068441'
p232
sa(dp233
g85
S'0.06741977500244976'
p234
sS'92'
p235
S'0.0531285060542943'
p236
sg11
S'0.06908042422440944'
p237
sg31
S'0.07070147262330595'
p238
sa(dp239
g60
S'0.160640213907754'
p240
sg11
S'0.11441533719416395'
p241
sa(dp242
S'108'
p243
S'0.08716873129200439'
p244
sg9
S'0.28395363117965217'
p245
sa(dp246
g38
S'0.057389306527359366'
p247
sg166
S'0.1027756307140804'
p248
sg79
S'0.05256468937971916'
p249
sg62
S'0.06901252774041734'
p250
sS'131'
p251
S'0.05066877604409678'
p252
sS'124'
p253
S'0.05246130567278366'
p254
sa(dp255
S'82'
p256
S'0.1356370371510267'
p257
sS'19'
p258
S'0.08667151374806023'
p259
sg31
S'0.06848815973519239'
p260
sa(dp261
g146
S'0.1528626193690176'
p262
sg60
S'0.07197687568951859'
p263
sS'16'
p264
S'0.1116338191117324'
p265
sa(dp266
g107
S'0.09590154117955263'
p267
sg81
S'0.06936069804600685'
p268
sg45
S'0.05215482600095354'
p269
sg155
S'0.06511909803176495'
p270
sa(dp271
g166
S'0.05770978597589391'
p272
sg62
S'0.07247952083516393'
p273
sS'135'
p274
S'0.0930858352768911'
p275
sg94
S'0.08457226220687931'
p276
sa(dp277
g107
S'0.28806122700974307'
p278
sa(dp279
g7
S'0.07452860035469666'
p280
sg227
S'0.11828674888515643'
p281
sg22
S'0.10371408720260133'
p282
sg62
S'0.05390708091617175'
p283
sa(dp284
g166
S'0.1027756307140804'
p285
sg160
S'0.0929365548118108'
p286
sg4
S'0.08626722112877674'
p287
sa(dp288
g258
S'0.07812628463232908'
p289
sg38
S'0.05209269742447555'
p290
sg166
S'0.05813457127648015'
p291
sg4
S'0.08381778044354565'
p292
sa(dp293
g85
S'0.07492620877942875'
p294
sg60
S'0.09350066488545872'
p295
sg192
S'0.05600540268458101'
p296
sa(dp297
g41
S'0.11403822947497447'
p298
sg230
S'0.05031750013869593'
p299
sS'139'
p300
S'0.06318917620388402'
p301
sS'138'
p302
S'0.05181457084354285'
p303
sg22
S'0.07859899211261126'
p304
sa(dp305
g258
S'0.08901762923123531'
p306
sg243
S'0.12543791371489882'
p307
sg52
S'0.15005236871363875'
p308
sg92
S'0.06794707888971764'
p309
sa(dp310
g7
S'0.11769837721751157'
p311
sS'109'
p312
S'0.09150534153256204'
p313
sg22
S'0.054519585229692066'
p314
sg4
S'0.2458139349845339'
p315
sa(dp316
g300
S'0.07094942048715291'
p317
sg22
S'0.07460618826941821'
p318
sg11
S'0.11482112823484633'
p319
sa(dp320
g7
S'0.1069863548880811'
p321
sg146
S'0.11338388038220264'
p322
sa(dp323
g166
S'0.052340149171601846'
p324
sg13
S'0.24027160826722013'
p325
sa(dp326
S'98'
p327
S'0.18567635723433024'
p328
sg54
S'0.05285261619946035'
p329
sS'90'
p330
S'0.06506639193871236'
p331
sa(dp332
g7
S'0.17470741037915766'
p333
sg22
S'0.15647932698788053'
p334
sa(dp335
g85
S'0.08165046337516967'
p336
sg60
S'0.06200520607353382'
p337
sg192
S'0.07100327865109334'
p338
sa(dp339
g85
S'0.19924874329045067'
p340
sS'4'
p341
S'0.05189098304139657'
p342
sg64
S'0.08111059334030912'
p343
sa(dp344
g327
S'0.05756990001420338'
p345
sg52
S'0.06816867904792084'
p346
sa(dp347
g107
S'0.15863127388801498'
p348
sa(dp349
g227
S'0.10640370172601615'
p350
sg166
S'0.09970459697134032'
p351
sS'118'
p352
S'0.1547468975092746'
p353
sa(dp354
g192
S'0.08653554892087706'
p355
sS'140'
p356
S'0.06189819220875626'
p357
sa(dp358
g7
S'0.15896705872046857'
p359
sg110
S'0.06328412533424026'
p360
sg143
S'0.07447397321662168'
p361
sa(dp362
g7
S'0.1276700468334964'
p363
sg110
S'0.0746429963500934'
p364
sg22
S'0.08443459407764653'
p365
sg45
S'0.056835462244799684'
p366
sa(dp367
g7
S'0.06357379109051489'
p368
sS'26'
p369
S'0.08377016427156458'
p370
sg22
S'0.1146688964667831'
p371
sg138
S'0.09137538256435791'
p372
sa(dp373
g327
S'0.10391484828053775'
p374
sg60
S'0.22165392383668134'
p375
sg179
S'0.08120353900726876'
p376
sa(dp377
g2
S'0.05220765809337613'
p378
sg126
S'0.11222606787949595'
p379
sg45
S'0.06680713186078448'
p380
sa(dp381
S'32'
p382
S'0.16429058276984543'
p383
sS'49'
p384
S'0.0691673358482766'
p385
sa(dp386
g382
S'0.18095706257908653'
p387
sg384
S'0.10616713816123848'
p388
sa(dp389
g85
S'0.08165046337516962'
p390
sg227
S'0.1076711014666708'
p391
sg62
S'0.088955866972387'
p392
sa(dp393
g356
S'0.05585436800470683'
p394
sg31
S'0.1178357399982809'
p395
sa(dp396
g382
S'0.2129026423969591'
p397
sg384
S'0.09347336566183341'
p398
sa(dp399
g2
S'0.1028109081117935'
p400
sg110
S'0.07764629698236332'
p401
sg64
S'0.05860054399563655'
p402
sa(dp403
g85
S'0.07167879375918478'
p404
sg227
S'0.06778442300273148'
p405
sg138
S'0.0632315571986943'
p406
sg62
S'0.06901252774041736'
p407
sa(dp408
S'115'
p409
S'0.07591160173151824'
p410
sg166
S'0.05234014917160183'
p411
sg75
S'0.1115600421267913'
p412
sa(dp413
g146
S'0.08290838353250213'
p414
sg52
S'0.06922011397469509'
p415
sa(dp416
S'24'
p417
S'0.09032491279104664'
p418
sS'146'
p419
S'0.07936586010130767'
p420
sg52
S'0.08161062682962239'
p421
sg327
S'0.05796710168226665'
p422
sa(dp423
S'2'
p424
S'0.05642581183949694'
p425
sS'75'
p426
S'0.07110227837483055'
p427
sg216
S'0.11241693663754658'
p428
sg243
S'0.05588106811464198'
p429
sa(dp430
g175
S'0.06738008301915205'
p431
sg225
S'0.06363007724872999'
p432
sg24
S'0.07423155129250553'
p433
sg62
S'0.07195629784454644'
p434
sa(dp435
g73
S'0.07553477763130635'
p436
sg38
S'0.0740023159528391'
p437
sg16
S'0.050265832395824155'
p438
sg143
S'0.08554706458925443'
p439
sg179
S'0.07235748181255511'
p440
sa(dp441
g417
S'0.057146727304256906'
p442
sg419
S'0.0571431828061185'
p443
sg166
S'0.08516116966592109'
p444
sS'50'
p445
S'0.05642677640367997'
p446
sg327
S'0.07587082247422151'
p447
sg73
S'0.08139449511513724'
p448
sa(dp449
g38
S'0.10686674374538442'
p450
sg143
S'0.10745668311761798'
p451
sa(dp452
g327
S'0.057967101682266625'
p453
sg166
S'0.16768266391829786'
p454
sg24
S'0.13264167450545267'
p455
sa(dp456
g230
S'0.06122934859952937'
p457
sg52
S'0.05434313972656694'
p458
sg31
S'0.07613855554041166'
p459
sa(dp460
g409
S'0.06375858682473985'
p461
sg102
S'0.053325348835224363'
p462
sg75
S'0.11156004212679133'
p463
sa(dp464
g417
S'0.09715043552161211'
p465
sg107
S'0.05414268817671778'
p466
sa(dp467
g175
S'0.05522706811237364'
p468
sg166
S'0.22248235786649956'
p469
sa(dp470
g417
S'0.09032491279104661'
p471
sg419
S'0.09032066936548942'
p472
sg166
S'0.06908938054066194'
p473
sg52
S'0.05970100830125882'
p474
sa(dp475
g417
S'0.09715043552161211'
p476
sg107
S'0.05414268817671778'
p477
sa(dp478
S'132'
p479
S'0.06774034696374716'
p480
sg138
S'0.14530994582852022'
p481
sa(dp482
g7
S'0.16106188725941392'
p483
sa(dp484
g85
S'0.2371721360035309'
p485
sg116
S'0.2220895919802218'
p486
sg138
S'0.05767507374278313'
p487
sa(dp488
g235
S'0.11200687124550898'
p489
sS'43'
p490
S'0.10220389105084911'
p491
sg341
S'0.06164502978828229'
p492
sa(dp493
g41
S'0.09623891320430485'
p494
sg45
S'0.06509491222564702'
p495
sg11
S'0.14722657365394187'
p496
sg160
S'0.07033962260100159'
p497
sa(dp498
S'68'
p499
S'0.06517093747066613'
p500
sg409
S'0.051605571917961446'
p501
sg102
S'0.11409042336911643'
p502
sg155
S'0.05002767427702177'
p503
sa(dp504
g369
S'0.0837701642715646'
p505
sg81
S'0.07208288669726624'
p506
sS'53'
p507
S'0.05687160738719725'
p508
sa(dp509
g153
S'0.06056823000043919'
p510
sg243
S'0.06843856168478726'
p511
sg22
S'0.10540256123070435'
p512
sg155
S'0.05171009576340781'
p513
sS'142'
p514
S'0.06049795520137687'
p515
sa(dp516
g97
S'0.05195503409864862'
p517
sS'5'
p518
S'0.21536608152031977'
p519
sg143
S'0.05756553114900017'
p520
sg384
S'0.08193300594259816'
p521
sa(dp522
g225
S'0.05735657901120511'
p523
sg85
S'0.07874584138445122'
p524
sg179
S'0.2695440485678271'
p525
sS'85'
p526
S'0.05614303795181278'
p527
sa(dp528
g146
S'0.05179649539283651'
p529
sg52
S'0.06922011397469507'
p530
sa(dp531
g225
S'0.1436707201391881'
p532
sa(dp533
g22
S'0.06313145606165056'
p534
sg384
S'0.056570342841165897'
p535
sg382
S'0.08892575925005854'
p536
sg31
S'0.06455209634120478'
p537
sS'129'
p538
S'0.05192645024226684'
p539
sg235
S'0.10348449362417295'
p540
sa(dp541
g107
S'0.0501492350295073'
p542
sS'144'
p543
S'0.05659411079353017'
p544
sg22
S'0.10493243845146222'
p545
sa(dp546
g225
S'0.09366178041574677'
p547
sg45
S'0.07960620969098073'
p548
sg153
S'0.27601688345415126'
p549
sg85
S'0.07492620877942875'
p550
sa(dp551
g90
S'0.05109235805957471'
p552
sS'64'
p553
S'0.12051694100473781'
p554
sS'84'
p555
S'0.17588241824814868'
p556
sa(dp557
g479
S'0.15311127579417222'
p558
sg160
S'0.0929365548118108'
p559
sg327
S'0.06273651221910559'
p560
sa(dp561
g18
S'0.1517299412542769'
p562
sg302
S'0.052486040388102416'
p563
sg445
S'0.05151912933382804'
p564
sa(dp565
g235
S'0.08425264953429955'
p566
sg22
S'0.07893119291094372'
p567
sg143
S'0.09504885060175848'
p568
sg507
S'0.09768084146568179'
p569
sa(dp570
g7
S'0.09643821888306023'
p571
sS'119'
p572
S'0.10000525691087432'
p573
sa(dp574
g225
S'0.12439515178262206'
p575
sg85
S'0.08735883584217957'
p576
sg153
S'0.22075051164961232'
p577
sa(dp578
g34
S'0.13011401626765512'
p579
sS'74'
p580
S'0.05264691580261976'
p581
sg11
S'0.09387892224713335'
p582
sg79
S'0.08247969822767362'
p583
sa(dp584
g85
S'0.15728035984951033'
p585
sg22
S'0.05002967107140782'
p586
sg92
S'0.057282867198654205'
p587
sa(dp588
g538
S'0.09895074531443641'
p589
sa(dp590
S'1'
p591
S'0.0749696609467658'
p592
sg126
S'0.06638194041131049'
p593
sg31
S'0.06986822943517883'
p594
sa(dp595
g538
S'0.06535327020006063'
p596
sg143
S'0.15381090389776508'
p597
sg13
S'0.1443076703719137'
p598
sa(dp599
g22
S'0.09794976087303818'
p600
sg24
S'0.07941350368556269'
p601
sg384
S'0.052570369155164796'
p602
sa(dp603
S'69'
p604
S'0.06208808345748326'
p605
sg85
S'0.052316782139586564'
p606
sg13
S'0.07414804265545229'
p607
sg110
S'0.05482990430042952'
p608
sa(dp609
g327
S'0.05276484260312078'
p610
sg38
S'0.08730431537531384'
p611
sg45
S'0.10669381032472376'
p612
sg369
S'0.05630886942345959'
p613
sa(dp614
g216
S'0.11227410918375082'
p615
sg102
S'0.06547836374200279'
p616
sg445
S'0.08709518858939345'
p617
sa(dp618
g230
S'0.11107907012090333'
p619
sa(dp620
g18
S'0.057141401707414136'
p621
sS'23'
p622
S'0.0781908178801411'
p623
sa(dp624
g166
S'0.09280396109809563'
p625
sg22
S'0.06449125484567689'
p626
sg75
S'0.08156445462699978'
p627
sg94
S'0.052275523659571'
p628
sa(dp629
g31
S'0.06173568719440781'
p630
sg22
S'0.08180446867423782'
p631
sg11
S'0.10313475343143207'
p632
sg143
S'0.07459225532507267'
p633
sa(dp634
g22
S'0.07446292446166168'
p635
sS'28'
p636
S'0.052535629748917366'
p637
sg507
S'0.07171100270461067'
p638
sg4
S'0.06632388189680712'
p639
sg107
S'0.054649879458384856'
p640
sg143
S'0.0778696410069422'
p641
sa(dp642
g41
S'0.22312058319127065'
p643
sg45
S'0.18026128322108054'
p644
sa(dp645
g85
S'0.07167879375918479'
p646
sg302
S'0.08240104923605689'
p647
sS'96'
p648
S'0.2827127239835761'
p649
sa(dp650
g41
S'0.2531162154682381'
p651
sa(dp652
g38
S'0.15710600268720756'
p653
sg166
S'0.1326906395620349'
p654
sg62
S'0.06901252774041736'
p655
sa(dp656
g330
S'0.20513733341632182'
p657
sa(dp658
g79
S'0.0756871526996171'
p659
sg235
S'0.32246747953571764'
p660
sg11
S'0.0678466808420784'
p661
sa(dp662
g85
S'0.14812989861950132'
p663
sg45
S'0.05215482600095353'
p664
sg22
S'0.050029671071407836'
p665
sa(dp666
g18
S'0.06946074172300765'
p667
sg143
S'0.06601975218281092'
p668
sg555
S'0.06104922628394054'
p669
sg31
S'0.11527742254406931'
p670
sa(dp671
g235
S'0.05153572374080521'
p672
sg507
S'0.160316180072566'
p673
sg31
S'0.0684881597351924'
p674
sa(dp675
g256
S'0.11129153815212699'
p676
sg34
S'0.06031232895576142'
p677
sa(dp678
g143
S'0.21786413250782855'
p679
sg31
S'0.05156730697516069'
p680
sa(dp681
S'133'
p682
S'0.11210578625897365'
p683
sg604
S'0.2044582133123287'
p684
sa(dp685
g409
S'0.1341560832554431'
p686
sg24
S'0.19837053009054328'
p687
sa(dp688
g107
S'0.11420246363957078'
p689
sg34
S'0.055345358305550214'
p690
sg126
S'0.09383332410133773'
p691
sS'94'
p692
S'0.07504534714278394'
p693
sa(dp694
g138
S'0.052757700414999255'
p695
sg107
S'0.05445175894641152'
p696
sg166
S'0.07664617898515866'
p697
sg24
S'0.12284361091961915'
p698
sS'104'
p699
S'0.08629867798639342'
p700
sa(dp701
g243
S'0.08868130920322537'
p702
sg24
S'0.14359648376963444'
p703
sg160
S'0.08018985636814933'
p704
sa(dp705
g300
S'0.07534219111066243'
p706
sg9
S'0.05034732622795042'
p707
sa(dp708
g175
S'0.10514437642091312'
p709
sg166
S'0.16260564840998928'
p710
sg138
S'0.07320322681467913'
p711
sg20
S'0.09156716723011461'
p712
sa(dp713
g382
S'0.12274264338530157'
p714
sg235
S'0.1119387146579837'
p715
sg22
S'0.08003989812927206'
p716
sg31
S'0.056097875307394025'
p717
sa(dp718
g538
S'0.07464471550087959'
p719
sS'116'
p720
S'0.05016831995972621'
p721
sa(dp722
S'83'
p723
S'0.1592602029075128'
p724
sg20
S'0.08729184608630076'
p725
sg138
S'0.05275770041499925'
p726
sg107
S'0.06660477385318993'
p727
sa(dp728
g591
S'0.05277939332334313'
p729
sg110
S'0.08427619675489645'
p730
sg34
S'0.08106864591692686'
p731
sg692
S'0.05284008490765257'
p732
sa(dp733
S'114'
p734
S'0.22197916257817232'
p735
sg179
S'0.06043960383607144'
p736
sg526
S'0.08349765841381522'
p737
sa(dp738
g41
S'0.17334285854035955'
p739
sS'77'
p740
S'0.06471588304831564'
p741
sg11
S'0.07393558301516372'
p742
sa(dp743
S'88'
p744
S'0.07438770166823787'
p745
sg235
S'0.1394582549355362'
p746
sg22
S'0.07748105476143502'
p747
sg11
S'0.05869621961206933'
p748
sa(dp749
g591
S'0.13902288955682926'
p750
sg126
S'0.06638194041131051'
p751
sg52
S'0.05901821781791178'
p752
sg13
S'0.05280305807182304'
p753
sg31
S'0.06071776820516976'
p754
sa(dp755
g41
S'0.19627084674521159'
p756
sg54
S'0.06517035054610898'
p757
sa(dp758
g155
S'0.1108896430000831'
p759
sg166
S'0.053318764397806834'
p760
sg75
S'0.08606074599208138'
p761
sa(dp762
g41
S'0.1807811235424124'
p763
sg166
S'0.07868142749923908'
p764
sg24
S'0.05163903336936347'
p765
sS'105'
p766
S'0.05165431706094394'
p767
sa(dp768
g41
S'0.39271959009202567'
p769
sg24
S'0.05093605659424459'
p770
sa(dp771
g22
S'0.08003989812927206'
p772
sS'29'
p773
S'0.127520181308736'
p774
sg143
S'0.06601975218281092'
p775
sa(dp776
g79
S'0.0883694693581102'
p777
sa(dp778
g235
S'0.1888671679603195'
p779
sa(dp780
g166
S'0.06288895225014113'
p781
sg22
S'0.10437793330961614'
p782
sg143
S'0.057926301774972544'
p783
sg31
S'0.06616688592442682'
p784
sa(dp785
g166
S'0.1309134758159664'
p786
sa(dp787
g499
S'0.08567149070118815'
p788
sg85
S'0.11152805369946499'
p789
sg166
S'0.1675153207360027'
p790
sg60
S'0.07519974242544059'
p791
sa(dp792
g166
S'0.1217630145859574'
p793
sg13
S'0.10770582545187746'
p794
sS'41'
p795
S'0.14697234629154912'
p796
sa(dp797
g60
S'0.31129694647315426'
p798
sa(dp799
g143
S'0.07059792753635667'
p800
sg75
S'0.2573962210081322'
p801
sg116
S'0.051874849706458274'
p802
sa(dp803
g175
S'0.07953309792593044'
p804
sg723
S'0.07418909856006395'
p805
sg166
S'0.052340149171601846'
p806
sg102
S'0.06547836374200279'
p807
sa(dp808
g622
S'0.07117358085400147'
p809
sg143
S'0.09781298023891188'
p810
sg580
S'0.05264691580261978'
p811
sg31
S'0.09608189477238131'
p812
sa(dp813
g41
S'0.07757918475463924'
p814
sg45
S'0.16649258145713133'
p815
sg24
S'0.06207853638572709'
p816
sg48
S'0.052579473039153085'
p817
sa(dp818
g60
S'0.07197687568951858'
p819
sg116
S'0.11236551749062196'
p820
sa(dp821
g143
S'0.08060721405769257'
p822
sg13
S'0.19005997652195908'
p823
sg24
S'0.05589172212457704'
p824
sa(dp825
g166
S'0.0928039610980956'
p826
sg81
S'0.05564213650127697'
p827
sg445
S'0.06149079894981285'
p828
sg163
S'0.05540634917389314'
p829
sg126
S'0.052396050183587055'
p830
sg341
S'0.07714903423891376'
p831
sg148
S'0.053587233266123434'
p832
sa(dp833
g107
S'0.0801503647062065'
p834
sg227
S'0.09974036726692581'
p835
sg126
S'0.08669373514072853'
p836
sg22
S'0.12231100329832585'
p837
sa(dp838
g126
S'0.221914433655329'
p839
sg518
S'0.06456042822198604'
p840
sg116
S'0.0625071694106979'
p841
sg11
S'0.05399224378319407'
p842
sa(dp843
g216
S'0.08215035374999735'
p844
sg179
S'0.07583542730262505'
p845
sg24
S'0.07087939582621422'
p846
sa(dp847
g41
S'0.06365449276452652'
p848
sS'31'
p849
S'0.12083050813715432'
p850
sg153
S'0.14124131213054142'
p851
sg526
S'0.07104781875254387'
p852
sa(dp853
g79
S'0.18082778119799178'
p854
sg166
S'0.06405905371704199'
p855
sg692
S'0.10463129112799643'
p856
sg34
S'0.06916357365294197'
p857
sa(dp858
g73
S'0.05829290957376656'
p859
sg22
S'0.15612788743356887'
p860
sg13
S'0.09105648472307375'
p861
sg148
S'0.05388676463673488'
p862
sa(dp863
g146
S'0.07272642915368213'
p864
sg424
S'0.07007133495924066'
p865
sg766
S'0.0697270519372359'
p866
sa(dp867
g73
S'0.05315101625330358'
p868
sg22
S'0.07460618826941823'
p869
sa(dp870
g107
S'0.06660477385318991'
p871
sS'44'
p872
S'0.05005799584948045'
p873
sg116
S'0.10048690933357189'
p874
sa(dp875
S'42'
p876
S'0.14329529522581747'
p877
sa(dp878
g166
S'0.07286062186612596'
p879
sg45
S'0.13660881917267823'
p880
sa(dp881
g85
S'0.17139548991903297'
p882
sg302
S'0.07242937962007205'
p883
sS'7'
p884
S'0.051059004418251154'
p885
sa(dp886
g73
S'0.07260659328813991'
p887
sg79
S'0.14140609058974438'
p888
sg22
S'0.13550698012478443'
p889
sg34
S'0.06639342062014474'
p890
sa(dp891
g27
S'0.07302445278759642'
p892
sg7
S'0.0578683595216026'
p893
sg235
S'0.062228913182623316'
p894
sg22
S'0.14426461177355543'
p895
sa(dp896
S'60'
p897
S'0.0837731394779354'
p898
sg235
S'0.1669096386255634'
p899
sg22
S'0.06833059353142595'
p900
sg166
S'0.06686024720590297'
p901
sa(dp902
g225
S'0.1519258074652276'
p903
sa(dp904
g382
S'0.10488704849871792'
p905
sg312
S'0.14136368961248616'
p906
sg153
S'0.20107132982645037'
p907
sa(dp908
g225
S'0.1436707201391881'
p909
sa(dp910
g155
S'0.13079323090904701'
p911
sg553
S'0.05155938014631455'
p912
sg116
S'0.09242217825865234'
p913
sa(dp914
g41
S'0.12246550966117077'
p915
sg175
S'0.06903391687094858'
p916
sg166
S'0.06686024720590296'
p917
sa(dp918
g166
S'0.0617729854316176'
p919
sg622
S'0.1533391029083842'
p920
sg227
S'0.06592348313168274'
p921
sg60
S'0.06102372419427705'
p922
sg34
S'0.05958846230856579'
p923
sg143
S'0.057565531149000176'
p924
sa(dp925
g16
S'0.10354866616068213'
p926
sa(dp927
g225
S'0.10117581606793226'
p928
sg34
S'0.06625871949566202'
p929
sa(dp930
g225
S'0.11213062533211403'
p931
sg73
S'0.08648958689548815'
p932
sg34
S'0.05530391023148025'
p933
sg24
S'0.06691281892036202'
p934
sa(dp935
g175
S'0.12296081217911341'
p936
sg107
S'0.063241922638585'
p937
sg166
S'0.08713564853304982'
p938
sa(dp939
S'123'
p940
S'0.07094815724845698'
p941
sg166
S'0.07286062186612596'
p942
sg52
S'0.07428647895853657'
p943
sg34
S'0.07028399857174623'
p944
sa(dp945
g327
S'0.06672036124421245'
p946
sg143
S'0.13550998143774695'
p947
sg699
S'0.19308397211440106'
p948
sg766
S'0.08335964818163004'
p949
sa(dp950
g97
S'0.2973732808458142'
p951
sa(dp952
g41
S'0.05897558894373739'
p953
sg81
S'0.050173268168902704'
p954
sg143
S'0.09650187385343623'
p955
sg699
S'0.09969982650092916'
p956
sa(dp957
g52
S'0.12699600802966493'
p958
sg766
S'0.08640653663640227'
p959
sa(dp960
g41
S'0.09184001673628271'
p961
sg227
S'0.05255789330006579'
p962
sg166
S'0.08004418980484372'
p963
sg22
S'0.11466889646678313'
p964
sa(dp965
g16
S'0.15298788434372412'
p966
sg166
S'0.05234014917160185'
p967
sg64
S'0.1142882674035277'
p968
sa(dp969
g166
S'0.25901993303609344'
p970
sg62
S'0.06332905960515486'
p971
sg140
S'0.08669306371769492'
p972
sa(dp973
g140
S'0.06657684361414833'
p974
sg34
S'0.12608304614623472'
p975
sg31
S'0.06784418941634593'
p976
sS'112'
p977
S'0.07230927896434582'
p978
sa(dp979
g166
S'0.06288895225014114'
p980
sg773
S'0.2999838296613698'
p981
sa(dp982
g34
S'0.05034065933977662'
p983
sS'14'
p984
S'0.19108480662075672'
p985
sg648
S'0.0932510012798645'
p986
sa(dp987
g92
S'0.08823218965757534'
p988
sg977
S'0.06324212786907628'
p989
sa(dp990
g143
S'0.07786964100694221'
p991
sg699
S'0.33007233370882044'
p992
sg766
S'0.0808690924043927'
p993
sa(dp994
g166
S'0.07664617898515869'
p995
sa(dp996
g153
S'0.08943790125696634'
p997
sg166
S'0.10195380833320722'
p998
sg22
S'0.1584881335235102'
p999
sa(dp1000
g107
S'0.07099279977456083'
p1001
sg518
S'0.08188046208083963'
p1002
sg116
S'0.07962476574172252'
p1003
sg143
S'0.05268263679670912'
p1004
sa(dp1005
g41
S'0.053273154941082396'
p1006
sg81
S'0.05566107645270883'
p1007
sg11
S'0.10226232228738553'
p1008
sa(dp1009
g330
S'0.07421685316872145'
p1010
sg235
S'0.09370594878549084'
p1011
sg22
S'0.06833059353142594'
p1012
sg20
S'0.05657484721695917'
p1013
sg977
S'0.08421921753154259'
p1014
sa(dp1015
g79
S'0.07621645445133182'
p1016
sa(dp1017
g7
S'0.053102659899382766'
p1018
sg107
S'0.059299696259516366'
p1019
sg153
S'0.0655562751639428'
p1020
sg62
S'0.14568321067523649'
p1021
sa(dp1022
g34
S'0.10996495306761066'
p1023
sg166
S'0.05234014917160185'
p1024
sa(dp1025
g22
S'0.05002967107140783'
p1026
sg60
S'0.2490585057956128'
p1027
sg52
S'0.06816867904792084'
p1028
sa(dp1029
g419
S'0.20355056248626374'
p1030
sg163
S'0.05999386755379377'
p1031
sa(dp1032
g90
S'0.08307670326113682'
p1033
sg526
S'0.05614303795181278'
p1034
sg384
S'0.0513930918403296'
p1035
sg62
S'0.05390708091617173'
p1036
sg4
S'0.08381778044354567'
p1037
sa(dp1038
g409
S'0.08662464130428212'
p1039
sg41
S'0.06242202906906181'
p1040
sg766
S'0.06856275912856546'
p1041
sa(dp1042
g302
S'0.08476544200894649'
p1043
sg16
S'0.060287554946264116'
p1044
sS'66'
p1045
S'0.06510830417450114'
p1046
sg526
S'0.05604627472378805'
p1047
sa(dp1048
g34
S'0.051134241274755035'
p1049
sg140
S'0.08009676281278626'
p1050
sg514
S'0.06049795520137687'
p1051
sg143
S'0.07447397321662168'
p1052
sg384
S'0.2679258686864348'
p1053
sa(dp1054
g849
S'0.3304906837363701'
p1055
sg253
S'0.057291360610082595'
p1056
sg11
S'0.06784668084207837'
p1057
sg13
S'0.07110398053184118'
p1058
sa(dp1059
g419
S'0.062271499263854425'
p1060
sg60
S'0.18166524146535162'
p1061
sg13
S'0.05754186992007595'
p1062
sa(dp1063
g100
S'0.13824468000590065'
p1064
sg34
S'0.1999418133788477'
p1065
sg36
S'0.11869580213809575'
p1066
sS'121'
p1067
S'0.10364994293779932'
p1068
sa(dp1069
g2
S'0.09366044688178445'
p1070
sg155
S'0.07426955926177403'
p1071
sg52
S'0.05901821781791178'
p1072
sg341
S'0.05249456855827323'
p1073
sa(dp1074
g163
S'0.05540634917389314'
p1075
sg734
S'0.062410635328208175'
p1076
sg11
S'0.16368060955902713'
p1077
sa(dp1078
g94
S'0.05742953917745338'
p1079
sg243
S'0.09963611846740716'
p1080
sg216
S'0.07929501759266214'
p1081
sg648
S'0.0695804958817531'
p1082
sa(dp1083
g38
S'0.13028104025558027'
p1084
sg52
S'0.13537714341685658'
p1085
sa(dp1086
g225
S'0.10008912196906516'
p1087
sg11
S'0.06580327756705033'
p1088
sS'48'
p1089
S'0.10013164460683883'
p1090
sg31
S'0.06848815973519237'
p1091
sa(dp1092
g107
S'0.0776006187195345'
p1093
sg60
S'0.08435020365544965'
p1094
sg192
S'0.10175770883462634'
p1095
sg100
S'0.06482877706314709'
p1096
sg81
S'0.06936069804600685'
p1097
sa(dp1098
g34
S'0.12722223057905185'
p1099
sg16
S'0.08106305921176285'
p1100
sg22
S'0.1983989926026227'
p1101
sg197
S'0.06953342459151493'
p1102
sa(dp1103
g499
S'0.0856714907011882'
p1104
sg45
S'0.05215482600095353'
p1105
sg52
S'0.17797421380802964'
p1106
sg4
S'0.05171137367751416'
p1107
sa(dp1108
g175
S'0.1060523701114919'
p1109
sg85
S'0.24676386591723393'
p1110
sg20
S'0.05227018084702297'
p1111
sa(dp1112
g225
S'0.3202720013515678'
p1113
sa(dp1114
g100
S'0.12050518546140955'
p1115
sg102
S'0.10358399683777737'
p1116
sg13
S'0.07748520915204561'
p1117
sg73
S'0.05878423739181514'
p1118
sa(dp1119
S'113'
p1120
S'0.06001501818397005'
p1121
sg720
S'0.060262156691117785'
p1122
sg102
S'0.05400411661555615'
p1123
sg179
S'0.09811198107489032'
p1124
sg54
S'0.06573960897099326'
p1125
sa(dp1126
g897
S'0.07739900973735091'
p1127
sg107
S'0.0801503647062065'
p1128
sg11
S'0.11340968951869883'
p1129
sg274
S'0.052186237102718476'
p1130
sg31
S'0.09836898047644779'
p1131
sa(dp1132
g175
S'0.05522706811237362'
p1133
sg107
S'0.06660477385318991'
p1134
sg424
S'0.08671316296811983'
p1135
sg166
S'0.052340149171601846'
p1136
sa(dp1137
g479
S'0.06961373581922248'
p1138
sg216
S'0.06834020832848037'
p1139
sa(dp1140
g740
S'0.054744213432330845'
p1141
sg146
S'0.1728059586009873'
p1142
sg179
S'0.1256937753825492'
p1143
sa(dp1144
g7
S'0.052618981826333115'
p1145
sg107
S'0.06003799051037904'
p1146
sg384
S'0.06234790110451136'
p1147
sg4
S'0.08381778044354565'
p1148
sa(dp1149
g166
S'0.06177298543161757'
p1150
sg92
S'0.17973764451908486'
p1151
sg849
S'0.07708034421417696'
p1152
sg445
S'0.05213337644420081'
p1153
sg243
S'0.07689278271859801'
p1154
sg518
S'0.06319010291172623'
p1155
sa(dp1156
g216
S'0.09877141351780287'
p1157
sg699
S'0.21970670151508662'
p1158
sa(dp1159
g225
S'0.08212412015333381'
p1160
sg16
S'0.1554430897090446'
p1161
sg22
S'0.08443459407764653'
p1162
sa(dp1163
g60
S'0.15175023261739726'
p1164
sg384
S'0.30604422746455356'
p1165
sa(dp1166
g166
S'0.13481823612575253'
p1167
sg341
S'0.06284579230557832'
p1168
sa(dp1169
g52
S'0.07731914027792992'
p1170
sg352
S'0.07631931631882663'
p1171
sa(dp1172
g100
S'0.06067516776550064'
p1173
sg140
S'0.05458665655826898'
p1174
sg22
S'0.07446292446166174'
p1175
sg62
S'0.06901252774041738'
p1176
sg384
S'0.2262708705366749'
p1177
sa(dp1178
g369
S'0.05167160028437451'
p1179
sg11
S'0.2508559054422597'
p1180
sa(dp1181
g479
S'0.07063187032750858'
p1182
sg102
S'0.16390899005509593'
p1183
sg116
S'0.07835774283700409'
p1184
sg11
S'0.06268436331583428'
p1185
sa(dp1186
S'33'
p1187
S'0.1062762625302107'
p1188
sS'3'
p1189
S'0.1048836073162687'
p1190
sg102
S'0.1451078078345784'
p1191
sa(dp1192
g155
S'0.16161496920294763'
p1193
sS'57'
p1194
S'0.07749277779192784'
p1195
sg692
S'0.09469796067347884'
p1196
sg94
S'0.21340486536561426'
p1197
sa(dp1198
g499
S'0.05230736757990099'
p1199
sg34
S'0.06297618859055427'
p1200
sg648
S'0.052137201834024725'
p1201
sa(dp1202
g73
S'0.07553477763130634'
p1203
sg20
S'0.10059507489692068'
p1204
sg11
S'0.09217994416725024'
p1205
sg166
S'0.05813457127648013'
p1206
sa(dp1207
g163
S'0.2648114111095744'
p1208
sa(dp1209
g38
S'0.05307210399739069'
p1210
sg94
S'0.0883252780785257'
p1211
sg227
S'0.06911860824092976'
p1212
sg274
S'0.11920421720341474'
p1213
sg107
S'0.12947817773987064'
p1214
sg143
S'0.06135163001446884'
p1215
sa(dp1216
g382
S'0.08494370926674825'
p1217
sg1189
S'0.09155861274006326'
p1218
sa(dp1219
g110
S'0.1325490643624177'
p1220
sg102
S'0.05845157979371993'
p1221
sS'65'
p1222
S'0.07423532960027177'
p1223
sa(dp1224
g146
S'0.28352608907710036'
p1225
sg22
S'0.05429296229905444'
p1226
sa(dp1227
g155
S'0.09398120093246157'
p1228
sg92
S'0.0613785500457343'
p1229
sg116
S'0.06144930076938258'
p1230
sS'100'
p1231
S'0.051438768646878796'
p1232
sg36
S'0.0697017876044442'
p1233
sg34
S'0.059588462308565786'
p1234
sa(dp1235
g2
S'0.10206600617330026'
p1236
sg580
S'0.05264691580261977'
p1237
sg92
S'0.09233872848386049'
p1238
sa(dp1239
g107
S'0.06660477385318993'
p1240
sg166
S'0.06449316407838027'
p1241
sg518
S'0.05437726764668549'
p1242
sg75
S'0.05079496759289931'
p1243
sg100
S'0.06179510478857953'
p1244
sa(dp1245
g155
S'0.2903399447648042'
p1246
sg369
S'0.05630886942345959'
p1247
sg327
S'0.12256652991501453'
p1248
sa(dp1249
g110
S'0.0867967582123724'
p1250
sg580
S'0.12151491358530951'
p1251
sg179
S'0.06043960383607145'
p1252
sg166
S'0.07601070843591204'
p1253
sg4
S'0.0700122961375323'
p1254
sa(dp1255
g175
S'0.1649743941168221'
p1256
sg734
S'0.10229731379214746'
p1257
sg1194
S'0.24097700483148873'
p1258
sa(dp1259
g897
S'0.05049666269134363'
p1260
sg216
S'0.06366204955663719'
p1261
sg92
S'0.10038520456435378'
p1262
sg312
S'0.06291046593995972'
p1263
sa(dp1264
g60
S'0.08435020365544965'
p1265
sg52
S'0.1322219076579843'
p1266
sg11
S'0.11359898699212377'
p1267
sg699
S'0.11072982104431948'
p1268
sa(dp1269
g183
S'0.07787864572911661'
p1270
sg155
S'0.07707275886484008'
p1271
sg31
S'0.08146053840882628'
p1272
sa(dp1273
g1194
S'0.19585187226527845'
p1274
sa(dp1275
g417
S'0.052798547728355044'
p1276
sg166
S'0.13786097473591438'
p1277
sg52
S'0.1982493978666067'
p1278
sg264
S'0.06082894930734683'
p1279
sa(dp1280
g41
S'0.06756274228111636'
p1281
sg419
S'0.0571431828061185'
p1282
sg872
S'0.05599146705213773'
p1283
sg216
S'0.0662344698768004'
p1284
sg24
S'0.05589172212457703'
p1285
sa(dp1286
g258
S'0.06525823693801908'
p1287
sg153
S'0.0655562751639428'
p1288
sg64
S'0.17755653998575446'
p1289
sa(dp1290
g107
S'0.11481203683128788'
p1291
sg648
S'0.08053530514593488'
p1292
sa(dp1293
g34
S'0.05530391023148023'
p1294
sg216
S'0.07929501759266212'
p1295
sg179
S'0.05044786328419157'
p1296
sa(dp1297
g419
S'0.09032066936548942'
p1298
sg499
S'0.08065513929299811'
p1299
sg1194
S'0.13327800778615229'
p1300
sg734
S'0.07951871404708223'
p1301
sa(dp1302
g2
S'0.06362830614039836'
p1303
sg766
S'0.09855955154318069'
p1304
sa(dp1305
g479
S'0.07333791886629369'
p1306
sg38
S'0.2269076899991013'
p1307
sg734
S'0.07238230494419298'
p1308
sa(dp1309
g417
S'0.07224703147905719'
p1310
sg382
S'0.055028700418793805'
p1311
sg22
S'0.0644912548456769'
p1312
sa(dp1313
g7
S'0.08487529956451857'
p1314
sg36
S'0.10405551765882061'
p1315
sg62
S'0.14079416522912402'
p1316
sa(dp1317
g604
S'0.08656765736032437'
p1318
sg1231
S'0.09667019257361846'
p1319
sa(dp1320
g163
S'0.08079171790246957'
p1321
sg146
S'0.09578371653862143'
p1322
sg1194
S'0.06903855675811708'
p1323
sg143
S'0.05756553114900018'
p1324
sg92
S'0.052924329011923545'
p1325
sa(dp1326
g225
S'0.1718691466971972'
p1327
sg163
S'0.1252080364857869'
p1328
sg64
S'0.12368966906791871'
p1329
sa(dp1330
g153
S'0.1657666065957062'
p1331
sa(dp1332
g341
S'0.23669574809467092'
p1333
sg11
S'0.08390725263114858'
p1334
sa(dp1335
g41
S'0.09623891320430489'
p1336
sg479
S'0.07063187032750859'
p1337
sg872
S'0.0517311889059428'
p1338
sa(dp1339
g734
S'0.16212733148805633'
p1340
sg766
S'0.13072744048431675'
p1341
sa(dp1342
g146
S'0.19319707768478053'
p1343
sg38
S'0.06424252642006091'
p1344
sS'86'
p1345
S'0.10557129172705758'
p1346
sg52
S'0.0620010169329462'
p1347
sg107
S'0.054889117472278835'
p1348
sa(dp1349
g312
S'0.05670791654412218'
p1350
sg179
S'0.05044786328419157'
p1351
sg138
S'0.08042057330017614'
p1352
sa(dp1353
g146
S'0.0631175928251542'
p1354
sg31
S'0.07613855554041167'
p1355
sg52
S'0.13411649665444553'
p1356
sg352
S'0.07319692577168438'
p1357
sg384
S'0.08666749591288732'
p1358
sa(dp1359
g7
S'0.10290821923171295'
p1360
sg85
S'0.09914157643913414'
p1361
sg34
S'0.0676634624194824'
p1362
sg22
S'0.05798144159111112'
p1363
sg699
S'0.06798585538451825'
p1364
sa(dp1365
g175
S'0.05141498135705144'
p1366
sg720
S'0.15027842583894657'
p1367
sg52
S'0.12923650483251067'
p1368
sg490
S'0.1034635138166685'
p1369
sg445
S'0.06416001219050749'
p1370
sa(dp1371
g230
S'0.09278870249507734'
p1372
sg179
S'0.16109467736617125'
p1373
sa(dp1374
g38
S'0.09591193448120267'
p1375
sg52
S'0.12542986388634947'
p1376
sg138
S'0.06946576403599439'
p1377
sg197
S'0.07914520123223925'
p1378
sa(dp1379
g90
S'0.0785437417496019'
p1380
sg580
S'0.07576260743526418'
p1381
sg11
S'0.07699714207208747'
p1382
sg140
S'0.05009121879765863'
p1383
sa(dp1384
g146
S'0.13291928013704793'
p1385
sg720
S'0.07107861439478737'
p1386
sg52
S'0.12414482703846066'
p1387
sa(dp1388
g312
S'0.06766272580830396'
p1389
sg52
S'0.05970100830125882'
p1390
sg179
S'0.0833122910767369'
p1391
sg13
S'0.07416992107136684'
p1392
sa(dp1393
g146
S'0.25007928288064196'
p1394
sg52
S'0.2054255974980568'
p1395
sa(dp1396
g107
S'0.08233953600513758'
p1397
sg872
S'0.08735558338103014'
p1398
sg36
S'0.10405551765882055'
p1399
sa(dp1400
g155
S'0.2207945164396229'
p1401
sg102
S'0.062458337649366875'
p1402
sg143
S'0.08292819425043244'
p1403
sa(dp1404
g90
S'0.060242819289583756'
p1405
sg34
S'0.07364628076556834'
p1406
sg4
S'0.05171137367751416'
p1407
sg9
S'0.06535977598752372'
p1408
sg148
S'0.08577594708233366'
p1409
sa(dp1410
g16
S'0.0940850694525513'
p1411
sg52
S'0.2568875750565308'
p1412
sg166
S'0.06908938054066195'
p1413
sa(dp1414
g369
S'0.16599723519929263'
p1415
sg24
S'0.08085106544219908'
p1416
sg75
S'0.19125282040283284'
p1417
sa(dp1418
g155
S'0.07162310111338437'
p1419
sg18
S'0.11954439621879843'
p1420
sg22
S'0.13723196231864915'
p1421
sa(dp1422
g7
S'0.1336043956190364'
p1423
sg369
S'0.06464845418222265'
p1424
sg24
S'0.068547475436985'
p1425
sg62
S'0.05851047879526667'
p1426
sa(dp1427
g90
S'0.08314928641932666'
p1428
sg166
S'0.08883090464438746'
p1429
sg24
S'0.06370062310731833'
p1430
sg526
S'0.1031155209533301'
p1431
sa(dp1432
g682
S'0.06975899825790807'
p1433
sg58
S'0.0608260129757756'
p1434
sg62
S'0.0500562577614559'
p1435
sg94
S'0.08659154985845285'
p1436
sa(dp1437
g90
S'0.18528301017791504'
p1438
sg146
S'0.07329816451347412'
p1439
sg45
S'0.05263574331728687'
p1440
sg62
S'0.062229762337902186'
p1441
sa(dp1442
g34
S'0.05530391023148022'
p1443
sg166
S'0.1567278546541161'
p1444
sg22
S'0.05989485014587424'
p1445
sg38
S'0.052092697424475545'
p1446
sa(dp1447
g24
S'0.06683154127530547'
p1448
sg369
S'0.11481077969743562'
p1449
sg179
S'0.16586738136790308'
p1450
sg62
S'0.05078258866837844'
p1451
sg64
S'0.10569176667649045'
p1452
sa(dp1453
g7
S'0.07140358235940089'
p1454
sg73
S'0.06309357265511913'
p1455
sg235
S'0.0754050263254727'
p1456
sa(dp1457
g179
S'0.10619190998611677'
p1458
sS'79'
p1459
S'0.1285243097594544'
p1460
sa(dp1461
g73
S'0.12396988182687727'
p1462
sg300
S'0.08951494902064973'
p1463
sg166
S'0.06828941842222518'
p1464
sg34
S'0.051718195323362644'
p1465
sg62
S'0.08013303926194265'
p1466
sa(dp1467
g2
S'0.051475291233619914'
p1468
sg744
S'0.05018458291701127'
p1469
sg81
S'0.07996710626626566'
p1470
sg102
S'0.05332534883522436'
p1471
sg13
S'0.0822824144791009'
p1472
sa(dp1473
g155
S'0.051019873981168466'
p1474
sg253
S'0.0724046449047533'
p1475
sS'136'
p1476
S'0.05133707868282007'
p1477
sg138
S'0.07320322681467913'
p1478
sa(dp1479
g7
S'0.05786835952160261'
p1480
sg107
S'0.214196593314142'
p1481
sg34
S'0.06031232895576143'
p1482
sg138
S'0.053259887582709504'
p1483
sg62
S'0.08895586697238703'
p1484
sa(dp1485
g41
S'0.13489125214072645'
p1486
sg327
S'0.06817724604358416'
p1487
sg225
S'0.06043070077343057'
p1488
sg1187
S'0.054274401561668684'
p1489
sg54
S'0.12309543065336745'
p1490
sa(dp1491
g744
S'0.07109195831300599'
p1492
sg20
S'0.17134052415799317'
p1493
sg4
S'0.16604057805665534'
p1494
sa(dp1495
g36
S'0.09374294161069346'
p1496
sg38
S'0.1350172099778796'
p1497
sg22
S'0.1598352058315166'
p1498
sg636
S'0.07566048625004035'
p1499
sa(dp1500
g2
S'0.07807979076739678'
p1501
sg514
S'0.22112815484378118'
p1502
sg31
S'0.08146053840882628'
p1503
sa(dp1504
g146
S'0.11315980059740599'
p1505
sg60
S'0.07907331219101217'
p1506
sa(dp1507
g155
S'0.07947954140250653'
p1508
sg382
S'0.05906867912327554'
p1509
sg138
S'0.07338795432102749'
p1510
sg85
S'0.07218688993196504'
p1511
sa(dp1512
g849
S'0.0779695383456756'
p1513
sg60
S'0.057163693662648625'
p1514
sg92
S'0.1781263717572727'
p1515
sa(dp1516
g110
S'0.054512425681685364'
p1517
sg81
S'0.07996710626626569'
p1518
sg22
S'0.09075200701938968'
p1519
sa(dp1520
g740
S'0.059386261439120965'
p1521
sg175
S'0.05073299441093043'
p1522
sg243
S'0.10152614502282253'
p1523
sg9
S'0.05620931475751468'
p1524
sg22
S'0.05002967107140783'
p1525
sa(dp1526
g175
S'0.06738008301915205'
p1527
sg34
S'0.1464239977879459'
p1528
sa(dp1529
g264
S'0.05668800455802932'
p1530
sg16
S'0.07858847740628225'
p1531
sg54
S'0.05285261619946037'
p1532
sg227
S'0.0713525556205753'
p1533
sg341
S'0.061645029788282284'
p1534
sg7
S'0.11715588850944622'
p1535
sa(dp1536
g107
S'0.1144798971542938'
p1537
sg102
S'0.07366898798982291'
p1538
sg24
S'0.05093605659424459'
p1539
sg22
S'0.054519585229692066'
p1540
sa(dp1541
g97
S'0.05195503409864863'
p1542
sg81
S'0.08099162406256526'
p1543
sg9
S'0.0603866820512538'
p1544
sg54
S'0.11646493517385778'
p1545
sa(dp1546
g146
S'0.07272642915368213'
p1547
sg166
S'0.0724135507318529'
p1548
sg1120
S'0.1105126756209678'
p1549
sa(dp1550
g740
S'0.050235800209111905'
p1551
sg479
S'0.06729823681681359'
p1552
sg445
S'0.07472769886369814'
p1553
sg92
S'0.13963701826873587'
p1554
sa(dp1555
g36
S'0.05745374410353713'
p1556
sg636
S'0.06867009924435671'
p1557
sg22
S'0.0927592779384196'
p1558
sg143
S'0.10745668311761798'
p1559
sa(dp1560
g155
S'0.11934386403389384'
p1561
sg744
S'0.15326990135744128'
p1562
sg300
S'0.1369538581232086'
p1563
sa(dp1564
g22
S'0.09075200701938964'
p1565
sg636
S'0.10048706771581303'
p1566
sg327
S'0.052154362233114114'
p1567
sa(dp1568
g146
S'0.05838575427649709'
p1569
sg60
S'0.06811850292683042'
p1570
sa(dp1571
g479
S'0.06336624925030886'
p1572
sg9
S'0.05128215158645536'
p1573
sg518
S'0.07453209783797086'
p1574
sg143
S'0.08784131062292704'
p1575
sa(dp1576
g22
S'0.08663151599144409'
p1577
sg38
S'0.1441676712078887'
p1578
sg36
S'0.166946631450766'
p1579
sg636
S'0.08481094748004944'
p1580
sa(dp1581
g499
S'0.05784329700181237'
p1582
sg73
S'0.06988401728190148'
p1583
sg341
S'0.05292744086653195'
p1584
sg62
S'0.07794264291614658'
p1585
sa(dp1586
g499
S'0.1902032319348159'
p1587
sg163
S'0.15946232643655106'
p1588
sg699
S'0.06683539870838384'
p1589
sa(dp1590
g34
S'0.1201423466516704'
p1591
sg92
S'0.17211208541173906'
p1592
sa(dp1593
g107
S'0.13442323638626336'
p1594
sg34
S'0.06031232895576142'
p1595
sg60
S'0.06200520607353377'
p1596
sa(dp1597
g163
S'0.06537801878987795'
p1598
sg166
S'0.08283229148211081'
p1599
sg22
S'0.05451958522969206'
p1600
sg24
S'0.06090772621022941'
p1601
sa(dp1602
S'12'
p1603
S'0.08123285596512582'
p1604
sg235
S'0.09214392203057777'
p1605
sg636
S'0.0625072993649022'
p1606
sg31
S'0.06616688592442684'
p1607
sa(dp1608
g419
S'0.10019968533619034'
p1609
sg73
S'0.08379655513810742'
p1610
sg740
S'0.05456672887980595'
p1611
sg41
S'0.053273154941082417'
p1612
sa(dp1613
g73
S'0.07553477763130634'
p1614
sg34
S'0.05530391023148022'
p1615
sg143
S'0.0526826367967091'
p1616
sa(dp1617
g256
S'0.06271894771035624'
p1618
sg102
S'0.06547836374200278'
p1619
sg148
S'0.07746268417743357'
p1620
sa(dp1621
g60
S'0.06200520607353376'
p1622
sg264
S'0.07174714064779313'
p1623
sg126
S'0.09228272864752632'
p1624
sg94
S'0.10213387173949505'
p1625
sa(dp1626
g153
S'0.09300765885397001'
p1627
sg13
S'0.21751136021198628'
p1628
sa(dp1629
g369
S'0.09619554788739887'
p1630
sg54
S'0.06756754525917838'
p1631
sg148
S'0.10344558134604752'
p1632
sa(dp1633
g155
S'0.07162310111338435'
p1634
sg102
S'0.07375491642491053'
p1635
sg1089
S'0.07258756198522567'
p1636
sg22
S'0.05081111913830513'
p1637
sa(dp1638
g256
S'0.056535280725602'
p1639
sg744
S'0.0781011479048313'
p1640
sg34
S'0.05530391023148025'
p1641
sa(dp1642
g256
S'0.06411462353198827'
p1643
sg744
S'0.07172453630213221'
p1644
sg22
S'0.050811119138305105'
p1645
sg13
S'0.13961314823045126'
p1646
sa(dp1647
g419
S'0.07224316887983924'
p1648
sg744
S'0.071091958313006'
p1649
sg1345
S'0.10358260677637732'
p1650
sg4
S'0.06632388189680712'
p1651
sa(dp1652
g73
S'0.08648958689548811'
p1653
sg369
S'0.05090573647901925'
p1654
sg126
S'0.0794715673355698'
p1655
sg341
S'0.05189098304139656'
p1656
sa(dp1657
g146
S'0.09452144197048785'
p1658
sg166
S'0.06686024720590296'
p1659
sg897
S'0.0563217557879082'
p1660
sg126
S'0.07553240164131957'
p1661
sg34
S'0.055345358305550214'
p1662
sg235
S'0.07540502632547272'
p1663
sa(dp1664
g73
S'0.10810258495166428'
p1665
sg138
S'0.08921674513533451'
p1666
sa(dp1667
g175
S'0.05522706811237364'
p1668
sg155
S'0.15940480843802743'
p1669
sg227
S'0.05830652504676689'
p1670
sa(dp1671
g60
S'0.09849525296484116'
p1672
sa(dp1673
g327
S'0.15464017448340228'
p1674
sg62
S'0.08387314189669891'
p1675
sS'76'
p1676
S'0.05187874349292331'
p1677
sa(dp1678
g102
S'0.06997744613466537'
p1679
sg235
S'0.13409312163941067'
p1680
sg22
S'0.07084965941005604'
p1681
sg13
S'0.11798915812809393'
p1682
sa(dp1683
g102
S'0.08364065760580773'
p1684
sg369
S'0.0563088694234596'
p1685
sg235
S'0.09214392203057778'
p1686
sg22
S'0.14426461177355546'
p1687
sg75
S'0.0516494457790453'
p1688
sa(dp1689
g13
S'0.13643395409498488'
p1690
sa(dp1691
g243
S'0.0832252225628044'
p1692
sg514
S'0.0929315966334893'
p1693
sg11
S'0.14105037068215096'
p1694
sg13
S'0.08940490299185934'
p1695
sa(dp1696
g2
S'0.06830979178644087'
p1697
sg183
S'0.057094342834701425'
p1698
sg648
S'0.08053530514593485'
p1699
sa(dp1700
g409
S'0.11237064645185348'
p1701
sg225
S'0.05147706234195159'
p1702
sg11
S'0.09010930738060716'
p1703
sa(dp1704
g79
S'0.05256468937971918'
p1705
sg744
S'0.18078032408883898'
p1706
sg126
S'0.10225439826351117'
p1707
sg138
S'0.0632315571986943'
p1708
sg13
S'0.09742854838401521'
p1709
sa(dp1710
g90
S'0.07562098232178946'
p1711
sg100
S'0.060675167765500616'
p1712
sg16
S'0.10558474162912052'
p1713
sg45
S'0.05683546224479969'
p1714
sg24
S'0.09082273505818392'
p1715
sa(dp1716
g126
S'0.06638194041131049'
p1717
sg146
S'0.08537098074047877'
p1718
sg166
S'0.06686024720590296'
p1719
sg155
S'0.06511909803176495'
p1720
sa(dp1721
g7
S'0.0526189818263331'
p1722
sg382
S'0.07140896993726872'
p1723
sg300
S'0.111733194168924'
p1724
sg34
S'0.05530391023148022'
p1725
sg179
S'0.05044786328419156'
p1726
sa(dp1727
g22
S'0.054519585229692046'
p1728
sg160
S'0.05304987634787155'
p1729
sg13
S'0.09742854838401521'
p1730
sg4
S'0.09623889074476157'
p1731
sa(dp1732
S'93'
p1733
S'0.0994476663087111'
p1734
sg744
S'0.05619152937646771'
p1735
sg13
S'0.18371801371318452'
p1736
sa(dp1737
g1187
S'0.08102985882827471'
p1738
sg166
S'0.1019538083332072'
p1739
sg636
S'0.0686700992443567'
p1740
sa(dp1741
g155
S'0.37373955953575655'
p1742
sa(dp1743
g330
S'0.08885141964044174'
p1744
sg126
S'0.15615523218484234'
p1745
sg102
S'0.09188706466302894'
p1746
sa(dp1747
g52
S'0.10165578134358927'
p1748
sg4
S'0.0634684853802985'
p1749
sa(dp1750
g13
S'0.18790615561941296'
p1751
sa(dp1752
g90
S'0.05574601381658668'
p1753
sg34
S'0.09408807673021988'
p1754
sa(dp1755
g41
S'0.08710666178726188'
p1756
sg94
S'0.09882639529977977'
p1757
sa(dp1758
g41
S'0.1892353445762232'
p1759
sg73
S'0.08365557267519882'
p1760
sg31
S'0.27590762218647374'
p1761
sa(dp1762
g369
S'0.1494990198566552'
p1763
sg18
S'0.057141401707414136'
p1764
sg1120
S'0.05585663273978488'
p1765
sa(dp1766
g90
S'0.06024281928958376'
p1767
sg16
S'0.07858847740628223'
p1768
sg22
S'0.06833059353142594'
p1769
sa(dp1770
g256
S'0.05653528072560198'
p1771
sg146
S'0.09125018206904241'
p1772
sg253
S'0.05763363804934121'
p1773
sg13
S'0.10703434886391214'
p1774
sa(dp1775
g148
S'0.08078019306931737'
p1776
sg13
S'0.10703434886391215'
p1777
sg4
S'0.13859182676445453'
p1778
sa(dp1779
g499
S'0.12447437634972525'
p1780
sg227
S'0.07446751182842935'
p1781
sg102
S'0.09188706466302896'
p1782
sg34
S'0.06625871949566202'
p1783
sa(dp1784
g1187
S'0.0919846680924565'
p1785
sg85
S'0.1225650784411783'
p1786
sa(dp1787
g1187
S'0.05912024029991119'
p1788
sg166
S'0.10195380833320725'
p1789
sg636
S'0.09057971777272024'
p1790
sa(dp1791
g479
S'0.06961373581922245'
p1792
sg235
S'0.14504793090359236'
p1793
sg102
S'0.08093225539884712'
p1794
sa(dp1795
g1187
S'0.1029394773566383'
p1796
sg85
S'0.10065545991281476'
p1797
sS'15'
p1798
S'0.05537216614299215'
p1799
sa(dp1800
g85
S'0.05231678213958656'
p1801
sg52
S'0.17288673476517444'
p1802
sg62
S'0.05005625776145592'
p1803
sa(dp1804
g7
S'0.07052731016774587'
p1805
sg52
S'0.0662309334957729'
p1806
sg227
S'0.09476556976710213'
p1807
sg22
S'0.06644597720583287'
p1808
sa(dp1809
g849
S'0.0743446080950038'
p1810
sg166
S'0.07664617898515867'
p1811
sg636
S'0.08833405280903465'
p1812
sg148
S'0.06530966927065518'
p1813
sa(dp1814
g22
S'0.07748105476143503'
p1815
sg426
S'0.10258277465605388'
p1816
sg52
S'0.12307144642797528'
p1817
sg13
S'0.0711039805318412'
p1818
sg138
S'0.07632509844477468'
p1819
sa(dp1820
g163
S'0.06388327583484803'
p1821
sg85
S'0.08613366627482956'
p1822
sg744
S'0.1532699013574413'
p1823
sg302
S'0.07831580996399577'
p1824
sa(dp1825
g22
S'0.07460618826941821'
p1826
sg97
S'0.24760422438968133'
p1827
sg143
S'0.05197699216849934'
p1828
sa(dp1829
g97
S'0.28226968158422316'
p1830
sa(dp1831
g243
S'0.1786907761923354'
p1832
sg64
S'0.10103292992057278'
p1833
sa(dp1834
g543
S'0.060742199730596615'
p1835
sg140
S'0.11391364694802926'
p1836
sg24
S'0.10236435957222802'
p1837
sg648
S'0.14669420717435594'
p1838
sa(dp1839
g876
S'0.06174440470214524'
p1840
sg518
S'0.07868329746024232'
p1841
sg143
S'0.07059792753635669'
p1842
sa(dp1843
g34
S'0.15631185300955105'
p1844
sa(dp1845
g734
S'0.16715718816053646'
p1846
sg155
S'0.056050090874485085'
p1847
sg327
S'0.057967101682266625'
p1848
sg197
S'0.06819039196805744'
p1849
sa(dp1850
g327
S'0.07762583699529989'
p1851
sg849
S'0.05638835259555479'
p1852
sa(dp1853
g7
S'0.052618981826333115'
p1854
sg85
S'0.0787458413844512'
p1855
sg341
S'0.05189098304139657'
p1856
sa(dp1857
g22
S'0.054292962299054455'
p1858
sg166
S'0.07664617898515867'
p1859
sg52
S'0.12699600802966493'
p1860
sS'21'
p1861
S'0.0744313086605745'
p1862
sa(dp1863
g22
S'0.0609606651496745'
p1864
sg97
S'0.24760422438968133'
p1865
sa(dp1866
g155
S'0.07795970940284865'
p1867
sg36
S'0.18891145527371841'
p1868
sg143
S'0.06363744606089089'
p1869
sg648
S'0.09149011441011666'
p1870
sa(dp1871
g225
S'0.07144446846060758'
p1872
sg62
S'0.06714770665744299'
p1873
sg4
S'0.0634684853802985'
p1874
sa(dp1875
g58
S'0.0788171219779328'
p1876
sg34
S'0.18676162140166147'
p1877
sg22
S'0.05989485014587424'
p1878
sg4
S'0.05095335265100033'
p1879
sa(dp1880
g327
S'0.059537456392765184'
p1881
sg179
S'0.08329858874427885'
p1882
sa(dp1883
g58
S'0.07881712197793281'
p1884
sg52
S'0.10352024535798592'
p1885
sg138
S'0.05851095477181261'
p1886
sa(dp1887
g22
S'0.10189723450890566'
p1888
sg977
S'0.16652753696909564'
p1889
sa(dp1890
g41
S'0.1007521849070056'
p1891
sg312
S'0.05699095877733413'
p1892
sg1120
S'0.12415819874071149'
p1893
sa(dp1894
g166
S'0.052917282634156335'
p1895
sg1120
S'0.0907304562158413'
p1896
sg31
S'0.056195216308442014'
p1897
sa(dp1898
g126
S'0.076933916257933'
p1899
sg1345
S'0.05448958391899684'
p1900
sg352
S'0.05421561240711041'
p1901
sg166
S'0.0598242205932343'
p1902
sg4
S'0.05021491214323645'
p1903
sa(dp1904
g849
S'0.0909154992891998'
p1905
sg97
S'0.10116712439112895'
p1906
sg143
S'0.06789797139095737'
p1907
sg148
S'0.05358723326612341'
p1908
sa(dp1909
g58
S'0.05690750344956924'
p1910
sg34
S'0.20867123993002507'
p1911
sg20
S'0.05677583784019361'
p1912
sg148
S'0.06982538380513557'
p1913
sa(dp1914
g41
S'0.05327315494108241'
p1915
sg31
S'0.19001830880297646'
p1916
sa(dp1917
g79
S'0.05191042463777502'
p1918
sg153
S'0.07491433276827147'
p1919
sg11
S'0.18733342663483443'
p1920
sa(dp1921
g251
S'0.05929725131800222'
p1922
sg166
S'0.09763986901578937'
p1923
sg518
S'0.05484414194091833'
p1924
sg4
S'0.07815461012130066'
p1925
sa(dp1926
g58
S'0.0566848264073643'
p1927
sg166
S'0.07601070843591202'
p1928
sg9
S'0.2117671556676688'
p1929
sg22
S'0.05002967107140782'
p1930
sa(dp1931
g58
S'0.1116815497704781'
p1932
sg34
S'0.05530391023148022'
p1933
sg52
S'0.20211352873562183'
p1934
sg45
S'0.05148424781561835'
p1935
sa(dp1936
g97
S'0.09283559174569625'
p1937
sg1120
S'0.08325842651798451'
p1938
sa(dp1939
g175
S'0.07953309792593044'
p1940
sg24
S'0.06207853638572709'
p1941
sg62
S'0.07195629784454642'
p1942
sg4
S'0.0686794992466402'
p1943
sa(dp1944
g52
S'0.05407791858899449'
p1945
sg166
S'0.1374112535190507'
p1946
sg22
S'0.09075200701938968'
p1947
sg13
S'0.0701293995723225'
p1948
sa(dp1949
g175
S'0.11599214264626569'
p1950
sS'89'
p1951
S'0.05036025851704224'
p1952
sg22
S'0.07859899211261126'
p1953
sa(dp1954
g100
S'0.09825414950891473'
p1955
sg52
S'0.07838394840255129'
p1956
sg11
S'0.10226232228738555'
p1957
sa(dp1958
g163
S'0.3128296561350958'
p1959
sa(dp1960
g9
S'0.07017598978424111'
p1961
sa(dp1962
g143
S'0.09036584095598674'
p1963
sg4
S'0.056798351189422'
p1964
sa(dp1965
g327
S'0.05276484260312078'
p1966
sg81
S'0.15535883266112516'
p1967
sg555
S'0.06203528553462483'
p1968
sg1089
S'0.08215901040059599'
p1969
sa(dp1970
g419
S'0.11235270024296877'
p1971
sg604
S'0.06494612018044182'
p1972
sg81
S'0.05566107645270885'
p1973
sg22
S'0.10290502192616809'
p1974
sg52
S'0.05407791858899448'
p1975
sa(dp1976
g256
S'0.08702497752391306'
p1977
sg897
S'0.05049666269134361'
p1978
sg166
S'0.05234014917160183'
p1979
sS'67'
p1980
S'0.09801063620754946'
p1981
sa(dp1982
g740
S'0.05456672887980595'
p1983
sg227
S'0.05830652504676687'
p1984
sg81
S'0.07996710626626566'
p1985
sg22
S'0.09075200701938965'
p1986
sa(dp1987
g369
S'0.1714086383850187'
p1988
sg60
S'0.07907331219101217'
p1989
sg24
S'0.08882243744872557'
p1990
sa(dp1991
g36
S'0.051584855073623356'
p1992
sg1603
S'0.06254384521514902'
p1993
sg636
S'0.06402802299547788'
p1994
sg143
S'0.09490395734991351'
p1995
sg31
S'0.0684881597351924'
p1996
sa(dp1997
g58
S'0.056907503449569234'
p1998
sg179
S'0.18190557445437283'
p1999
sa(dp2000
g41
S'0.2531162154682382'
p2001
sg22
S'0.17417962062150996'
p2002
sa(dp2003
g34
S'0.07721352875984377'
p2004
sg514
S'0.07839203132418746'
p2005
sa(dp2006
g230
S'0.253497908608121'
p2007
sg22
S'0.0927592779384196'
p2008
sg179
S'0.05044786328419158'
p2009
sa(dp2010
g41
S'0.2730595547002078'
p2011
sg22
S'0.14426461177355543'
p2012
sa(dp2013
g419
S'0.11235270024296877'
p2014
sg479
S'0.1379929612752624'
p2015
sg13
S'0.05797638466554408'
p2016
sg73
S'0.05949052532455063'
p2017
sa(dp2018
g230
S'0.1877690530230303'
p2019
sg22
S'0.1146688964667831'
p2020
sa(dp2021
g2
S'0.08508800296272245'
p2022
sg143
S'0.06562251528824306'
p2023
sg31
S'0.07689917063904977'
p2024
sa(dp2025
g34
S'0.06297618859055429'
p2026
sg518
S'0.054047338792131666'
p2027
sa(dp2028
g36
S'0.2436855015946273'
p2029
sa(dp2030
g897
S'0.07480269250490042'
p2031
sg256
S'0.06271894771035624'
p2032
sg1980
S'0.09801063620754946'
p2033
sa(dp2034
g73
S'0.15221844248057875'
p2035
sg13
S'0.06321511180718506'
p2036
sa(dp2037
g22
S'0.09275927793841958'
p2038
sg9
S'0.15493151066766955'
p2039
sg692
S'0.1007980907610088'
p2040
sa(dp2041
S'56'
p2042
S'0.0779687542447348'
p2043
sg243
S'0.08868130920322537'
p2044
sg126
S'0.0904263765997516'
p2045
sg81
S'0.06112807743308447'
p2046
sa(dp2047
g36
S'0.22177588306626364'
p2048
sg699
S'0.0996998265009291'
p2049
sa(dp2050
g230
S'0.0712010182155142'
p2051
sg155
S'0.09090655244510776'
p2052
sg166
S'0.10277563071408044'
p2053
sg92
S'0.12225373733181495'
p2054
sa(dp2055
g256
S'0.09917799243069149'
p2056
sg897
S'0.06264967759812202'
p2057
sg22
S'0.054292962299054455'
p2058
sg1980
S'0.11016365111432791'
p2059
sa(dp2060
g34
S'0.06297618859055426'
p2061
sg4
S'0.10346618339892037'
p2062
sa(dp2063
g897
S'0.07480269250490044'
p2064
sg36
S'0.07589088488718015'
p2065
sg92
S'0.07607917475079695'
p2066
sa(dp2067
g100
S'0.14334099662426258'
p2068
sg75
S'0.10056097127976361'
p2069
sa(dp2070
g163
S'0.060869043058915016'
p2071
sg243
S'0.05581688141068004'
p2072
sg126
S'0.10138118586393338'
p2073
sg81
S'0.06112807743308446'
p2074
sa(dp2075
g22
S'0.07859899211261126'
p2076
sg369
S'0.08077968986100655'
p2077
sg302
S'0.05181457084354285'
p2078
sg253
S'0.2340796489053485'
p2079
sa(dp2080
g1189
S'0.11158745007859422'
p2081
sg773
S'0.2440764237595935'
p2082
sg341
S'0.05756667005526186'
p2083
sa(dp2084
g897
S'0.06264967759812201'
p2085
sg22
S'0.054292962299054434'
p2086
sg36
S'0.12450294451429379'
p2087
sa(dp2088
g41
S'0.11439770802674934'
p2089
sg426
S'0.07110227837483055'
p2090
sg34
S'0.05524210125390259'
p2091
sg13
S'0.051450924421975845'
p2092
sg795
S'0.05542459262885955'
p2093
sa(dp2094
g155
S'0.20059491822094083'
p2095
sg81
S'0.05564213650127698'
p2096
sg92
S'0.1322254069477998'
p2097
sa(dp2098
g163
S'0.1704171357007327'
p2099
sg499
S'0.13542918561390685'
p2100
sg514
S'0.05648241279582388'
p2101
sa(dp2102
g300
S'0.07886876637637871'
p2103
sg160
S'0.1130542841606947'
p2104
sa(dp2105
g2
S'0.12602457232195363'
p2106
sg34
S'0.0688876243736463'
p2107
sg38
S'0.05124215223209072'
p2108
sa(dp2109
g382
S'0.16429058276984543'
p2110
sg369
S'0.06862667495422814'
p2111
sa(dp2112
g34
S'0.07350590834727547'
p2113
sg1951
S'0.07466628833059907'
p2114
sg166
S'0.06449316407838027'
p2115
sa(dp2116
g230
S'0.0712010182155142'
p2117
sg155
S'0.11084989167707743'
p2118
sg166
S'0.072860621866126'
p2119
sg555
S'0.05206361591864004'
p2120
sg92
S'0.10231039809984532'
p2121
sa(dp2122
g382
S'0.11567852314273186'
p2123
sg62
S'0.05980328293776805'
p2124
sa(dp2125
g499
S'0.052307367579901'
p2126
sg302
S'0.06632301303234454'
p2127
sg22
S'0.08505131549726058'
p2128
sa(dp2129
g409
S'0.11237064645185348'
p2130
sg163
S'0.05537370964104355'
p2131
sg138
S'0.05275770041499925'
p2132
sS'143'
p2133
S'0.07554714599389377'
p2134
sg54
S'0.05804220437110748'
p2135
sa(dp2136
g73
S'0.06457996836712455'
p2137
sg143
S'0.07459225532507263'
p2138
sg31
S'0.050780877930225995'
p2139
sa(dp2140
g1189
S'0.09943443517181579'
p2141
sg9
S'0.05034732622795044'
p2142
sg773
S'0.20761737903925828'
p2143
sa(dp2144
g227
S'0.09974036726692577'
p2145
sg81
S'0.14017117129924048'
p2146
sg253
S'0.06138639721056479'
p2147
sg1089
S'0.05274794052375019'
p2148
sa(dp2149
g225
S'0.12439515178262202'
p2150
sg100
S'0.07394811969535794'
p2151
sg1120
S'0.11057813077985991'
p2152
sa(dp2153
g1189
S'0.11158745007859422'
p2154
sg773
S'0.2319234088528151'
p2155
sa(dp2156
g382
S'0.12483038773068757'
p2157
sg107
S'0.08456488830633933'
p2158
sa(dp2159
g107
S'0.0745932186903545'
p2160
sg720
S'0.16082364093865073'
p2161
sg22
S'0.10437793330961614'
p2162
sg11
S'0.0639639133991789'
p2163
sg179
S'0.055892088070655425'
p2164
sa(dp2165
g409
S'0.08806461663829666'
p2166
sg163
S'0.06752672454782196'
p2167
sg138
S'0.06491071532177767'
p2168
sa(dp2169
g58
S'0.05180033804194267'
p2170
sg92
S'0.14219707656378458'
p2171
sa(dp2172
g2
S'0.08450998565177534'
p2173
sg538
S'0.22091111111021478'
p2174
sg153
S'0.05640581393393373'
p2175
sa(dp2176
g52
S'0.1026899782161081'
p2177
sg253
S'0.13685552965112124'
p2178
sg1089
S'0.05151958497972522'
p2179
sa(dp2180
g2
S'0.15192435425322437'
p2181
sg1603
S'0.061289516733156184'
p2182
sg116
S'0.07247883902668273'
p2183
sa(dp2184
g243
S'0.08072260275483736'
p2185
sg166
S'0.1426623091780197'
p2186
sg13
S'0.06751353953606078'
p2187
sa(dp2188
g107
S'0.08456488830633932'
p2189
sg720
S'0.18076698017062043'
p2190
sg22
S'0.1243212725415858'
p2191
sg11
S'0.08390725263114855'
p2192
sa(dp2193
g1476
S'0.10021780688590247'
p2194
sa(dp2195
g110
S'0.10391191296975753'
p2196
sg227
S'0.09637713035679292'
p2197
sg140
S'0.08187815278531964'
p2198
sa(dp2199
g243
S'0.11059092773158895'
p2200
sg166
S'0.12386342686157083'
p2201
sg555
S'0.05719673875657091'
p2202
sa(dp2203
g85
S'0.11166486565573641'
p2204
sg227
S'0.08261255486032372'
p2205
sg166
S'0.1374112535190507'
p2206
sg13
S'0.0701293995723225'
p2207
sa(dp2208
g34
S'0.06297618859055429'
p2209
sg160
S'0.14498232536484795'
p2210
sa(dp2211
g256
S'0.19929522939824182'
p2212
sg227
S'0.11591740661305658'
p2213
sg16
S'0.06301887864876068'
p2214
sg153
S'0.052568558210685304'
p2215
sa(dp2216
g409
S'0.08985874145452467'
p2217
sg723
S'0.08881874758018923'
p2218
sg300
S'0.10419017431743181'
p2219
sg60
S'0.12634001856919008'
p2220
sg36
S'0.09718384591624635'
p2221
sa(dp2222
g155
S'0.23897786140193725'
p2223
sg22
S'0.1140828996814713'
p2224
sa(dp2225
g227
S'0.051821609247041295'
p2226
sg52
S'0.12894682758307668'
p2227
sa(dp2228
g419
S'0.06841105083712587'
p2229
sg22
S'0.0927592779384196'
p2230
sg555
S'0.1886544499267522'
p2231
sa(dp2232
g2133
S'0.12576163829873785'
p2233
sg138
S'0.059236858201815686'
p2234
sg11
S'0.07388455887561518'
p2235
sa(dp2236
g163
S'0.08744525124382098'
p2237
sg85
S'0.07492620877942878'
p2238
sg227
S'0.0805030168505844'
p2239
sg166
S'0.07601070843591204'
p2240
sa(dp2241
g1067
S'0.1560948776342371'
p2242
sg227
S'0.062202094390566245'
p2243
sg36
S'0.166946631450766'
p2244
sg382
S'0.05964731974132327'
p2245
sa(dp2246
g155
S'0.15169022018899472'
p2247
sg514
S'0.05671006693003798'
p2248
sa(dp2249
g225
S'0.17186914669719716'
p2250
sa(dp2251
g1089
S'0.1760479483763967'
p2252
sg555
S'0.21248426316818492'
p2253
sa(dp2254
g1951
S'0.07123610189026117'
p2255
sg514
S'0.0713567363921709'
p2256
sg24
S'0.14068108313810798'
p2257
sa(dp2258
g382
S'0.06356309614862626'
p2259
sg24
S'0.06009325440317425'
p2260
sg555
S'0.23013364696015573'
p2261
sg648
S'0.09596888097149145'
p2262
sa(dp2263
g382
S'0.06356309614862626'
p2264
sg555
S'0.23858786799396647'
p2265
sg648
S'0.07906043890386992'
p2266
sa(dp2267
g90
S'0.15174743158967446'
p2268
sg479
S'0.0581477755868045'
p2269
sg1798
S'0.0737032943617841'
p2270
sg64
S'0.05860054399563656'
p2271
sa(dp2272
g225
S'0.07578309215550837'
p2273
sg100
S'0.08610113460213635'
p2274
sg52
S'0.16345505275000013'
p2275
sa(dp2276
g13
S'0.06751353953606075'
p2277
sg1120
S'0.10070212583182614'
p2278
sg274
S'0.121383165266643'
p2279
sa(dp2280
g1798
S'0.055327122142549194'
p2281
sg155
S'0.08346260459027614'
p2282
sg514
S'0.07035559004978167'
p2283
sg13
S'0.051450924421975845'
p2284
sa(dp2285
g166
S'0.12921953324709556'
p2286
sg45
S'0.05755222789220909'
p2287
sg16
S'0.07137800928489589'
p2288
sa(dp2289
g155
S'0.11070360514046906'
p2290
sg34
S'0.07853213266038707'
p2291
sg22
S'0.053939427357594966'
p2292
sa(dp2293
g90
S'0.06564931270580461'
p2294
sg60
S'0.07197687568951859'
p2295
sg876
S'0.07060523745625674'
p2296
sa(dp2297
g591
S'0.11999069638936603'
p2298
sg235
S'0.10348449362417296'
p2299
sg197
S'0.11180452976056873'
p2300
sa(dp2301
g16
S'0.17177628175940074'
p2302
sg13
S'0.05145092442197586'
p2303
sg166
S'0.058768027612109176'
p2304
sa(dp2305
g682
S'0.13213839263849078'
p2306
sg155
S'0.0909065524451078'
p2307
sg734
S'0.07238230494419301'
p2308
sg417
S'0.08221870109504203'
p2309
sa(dp2310
g740
S'0.08023034331535123'
p2311
sg155
S'0.06016431679721856'
p2312
sg126
S'0.07823951410691775'
p2313
sg341
S'0.12458835169157445'
p2314
sg734
S'0.05291323582155402'
p2315
sa(dp2316
g740
S'0.09463089189627018'
p2317
sg227
S'0.157529449546595'
p2318
sg22
S'0.09440626369363139'
p2319
sg38
S'0.05738930652735941'
p2320
sa(dp2321
g1676
S'0.10190347952191088'
p2322
sg166
S'0.07601070843591204'
p2323
sg73
S'0.06309357265511914'
p2324
sg107
S'0.06845015748952545'
p2325
sa(dp2326
g100
S'0.08610113460213638'
p2327
sg166
S'0.05234014917160185'
p2328
sg52
S'0.12699600802966496'
p2329
sg75
S'0.06294798249967774'
p2330
sa(dp2331
g155
S'0.2206769389419191'
p2332
sg166
S'0.05770978597589391'
p2333
sg22
S'0.050029671071407815'
p2334
sa(dp2335
g682
S'0.12216672302250592'
p2336
sg417
S'0.08221870109504201'
p2337
sg734
S'0.06241063532820817'
p2338
sg179
S'0.06586375768664027'
p2339
sg155
S'0.07096321321313813'
p2340
sa(dp2341
g34
S'0.07322842400366082'
p2342
sa(dp2343
g163
S'0.10468828011564212'
p2344
sg382
S'0.0823637792014505'
p2345
sg2133
S'0.09000832334890974'
p2346
sg1089
S'0.10121414625922984'
p2347
sa(dp2348
g60
S'0.1026511261154678'
p2349
sg13
S'0.06195351930183212'
p2350
sa(dp2351
g166
S'0.08004418980484376'
p2352
sg2133
S'0.09000832334890978'
p2353
sg1089
S'0.06834971846668454'
p2354
sa(dp2355
g740
S'0.115331803413698'
p2356
sg227
S'0.14337762939421578'
p2357
sa(dp2358
g155
S'0.2968825057439198'
p2359
sg166
S'0.08713564853304985'
p2360
sa(dp2361
g225
S'0.1669046716530229'
p2362
sg155
S'0.08891451866703043'
p2363
sg24
S'0.08882243744872557'
p2364
sa(dp2365
g417
S'0.06841529426268306'
p2366
sg155
S'0.0998693279312122'
p2367
sg977
S'0.18846459000485716'
p2368
sa(dp2369
g155
S'0.09986932793121217'
p2370
sg2133
S'0.09000832334890974'
p2371
sg1089
S'0.07930452773086628'
p2372
sa(dp2373
g102
S'0.0590226368704836'
p2374
sg1189
S'0.0896308677274258'
p2375
sg52
S'0.10352024535798592'
p2376
sg179
S'0.06140267254837335'
p2377
sg977
S'0.06796168809885757'
p2378
sa(dp2379
g73
S'0.06875590700779995'
p2380
sg60
S'0.05203353645754896'
p2381
sg36
S'0.062269225929905664'
p2382
sg45
S'0.056835462244799656'
p2383
sg92
S'0.08236705886787565'
p2384
sa(dp2385
g740
S'0.09463089189627014'
p2386
sg155
S'0.11084989167707739'
p2387
sg64
S'0.053887981756024946'
p2388
sg110
S'0.06467132673410855'
p2389
sg734
S'0.09232564417616262'
p2390
sa(dp2391
g155
S'0.08552697989865085'
p2392
sg38
S'0.12474402194918677'
p2393
sg22
S'0.08003989812927209'
p2394
sg872
S'0.05173118890594283'
p2395
sg64
S'0.0541417464308706'
p2396
sa(dp2397
g38
S'0.05124215223209071'
p2398
sg2133
S'0.12576163829873788'
p2399
sg138
S'0.07288238132155941'
p2400
sa(dp2401
g155
S'0.23356335890745702'
p2402
sg166
S'0.05876802761210916'
p2403
sa(dp2404
g243
S'0.09216381323078525'
p2405
sa(dp2406
g740
S'0.0776871838991391'
p2407
sg155
S'0.11087140418181028'
p2408
sg166
S'0.057709785975893914'
p2409
sg52
S'0.06816867904792084'
p2410
sg24
S'0.1290954119646496'
p2411
sa(dp2412
g740
S'0.11533180341369802'
p2413
sg227
S'0.14337762939421578'
p2414
sa(dp2415
g7
S'0.06225312112939184'
p2416
sg85
S'0.07492620877942877'
p2417
sg2133
S'0.06603274400161897'
p2418
sg1089
S'0.10284425853632415'
p2419
sg24
S'0.06504218335458611'
p2420
sa(dp2421
g155
S'0.1107536508297636'
p2422
sg24
S'0.17886656827509842'
p2423
sa(dp2424
g41
S'0.1794784908497369'
p2425
sg52
S'0.05970100830125881'
p2426
sg341
S'0.1943035034757596'
p2427
sa(dp2428
g155
S'0.07795970940284862'
p2429
sg24
S'0.2531445764114521'
p2430
sg341
S'0.06284579230557832'
p2431
sa(dp2432
g490
S'0.07497512262669355'
p2433
sg11
S'0.17518041172805604'
p2434
sg138
S'0.07706373022855606'
p2435
sg31
S'0.08064117464197078'
p2436
sa(dp2437
g740
S'0.11585014540326444'
p2438
sg940
S'0.056150955330225634'
p2439
sg445
S'0.1114368463947722'
p2440
sa(dp2441
g1189
S'0.1444049140483347'
p2442
sg227
S'0.07446751182842934'
p2443
sa(dp2444
g163
S'0.09373347085146033'
p2445
sg382
S'0.06045416067308696'
p2446
sg2133
S'0.10096313261309152'
p2447
sg1089
S'0.0793045277308663'
p2448
sa(dp2449
g740
S'0.26116798229503885'
p2450
sg682
S'0.06382011078314308'
p2451
sg341
S'0.057566670055261844'
p2452
sa(dp2453
g79
S'0.09922209809296034'
p2454
sg148
S'0.1006213769279224'
p2455
sa(dp2456
g225
S'0.13404024386047753'
p2457
sg155
S'0.06700490013866685'
p2458
sa(dp2459
g445
S'0.07050027703554104'
p2460
sa(dp2461
g41
S'0.05327315494108243'
p2462
sg227
S'0.09476556976710211'
p2463
sg60
S'0.06341609465352675'
p2464
sg341
S'0.06971968496204026'
p2465
sa(dp2466
g60
S'0.11186355415345789'
p2467
sg1194
S'0.051515282127777076'
p2468
sg16
S'0.12552808086109013'
p2469
sg45
S'0.0767788014767693'
p2470
sa(dp2471
g110
S'0.1344730140460023'
p2472
sg2133
S'0.09190219359677804'
p2473
sg146
S'0.0631175928251542'
p2474
sa(dp2475
g146
S'0.09303260167310864'
p2476
sg11
S'0.05399224378319406'
p2477
sg2133
S'0.12181720244473244'
p2478
sg110
S'0.05469965711812372'
p2479
sa(dp2480
g740
S'0.2611679822950389'
p2481
sg682
S'0.05166709587636468'
p2482
sg62
S'0.05980328293776803'
p2483
sa(dp2484
g79
S'0.08557657497321663'
p2485
sg148
S'0.08697585380817868'
p2486
sa(dp2487
g417
S'0.0903249127910466'
p2488
sg155
S'0.09986932793121218'
p2489
sg977
S'0.1775097807406753'
p2490
sa(dp2491
g34
S'0.1210327658165709'
p2492
sg24
S'0.09977724671290734'
p2493
sg490
S'0.06758307911528699'
p2494
sa(dp2495
g2133
S'0.112006190714229'
p2496
sg138
S'0.05275770041499925'
p2497
sg31
S'0.117100219362306'
p2498
sa(dp2499
g163
S'0.1001924881673733'
p2500
sg52
S'0.08569246452253898'
p2501
sg2133
S'0.06343659782050842'
p2502
sg138
S'0.06429554091590085'
p2503
sa(dp2504
g41
S'0.16852368158555514'
p2505
sg52
S'0.09256543609380413'
p2506
sg341
S'0.17239388494739608'
p2507
sa(dp2508
g73
S'0.06059234437812403'
p2509
sg16
S'0.05582206521506309'
p2510
sa(dp2511
g79
S'0.07250802861168883'
p2512
sg102
S'0.06369731837383809'
p2513
sg62
S'0.059040858124432556'
p2514
sg148
S'0.16327559904195646'
p2515
sa(dp2516
g73
S'0.05315101625330356'
p2517
sg16
S'0.08990314304093838'
p2518
sg45
S'0.06412977870528973'
p2519
sg54
S'0.05152482742636525'
p2520
sa(dp2521
g45
S'0.05148424781561833'
p2522
sg60
S'0.05716369366264862'
p2523
sg52
S'0.10352024535798589'
p2524
sg64
S'0.08111059334030912'
p2525
sa(dp2526
g155
S'0.07096321321313812'
p2527
sg2133
S'0.07195885436480838'
p2528
sg24
S'0.10079440467416871'
p2529
sg31
S'0.09608189477238128'
p2530
sa(dp2531
g682
S'0.06613424404302617'
p2532
sg225
S'0.05033505572019125'
p2533
sg22
S'0.053939427357594966'
p2534
sg138
S'0.08308616954918902'
p2535
sa(dp2536
g60
S'0.1218352237694427'
p2537
sg41
S'0.05368282314854168'
p2538
sg16
S'0.16541475932502936'
p2539
sg24
S'0.06090772621022939'
p2540
sa(dp2541
g166
S'0.2692230298755907'
p2542
sa(dp2543
g740
S'0.08023034331535121'
p2544
sg744
S'0.051819248951712214'
p2545
sa(dp2546
g41
S'0.05897558894373737'
p2547
sg227
S'0.06351270256424756'
p2548
sg60
S'0.057163693662648625'
p2549
sg341
S'0.051890983041396575'
p2550
sa(dp2551
g60
S'0.07556910956030514'
p2552
sg45
S'0.05711544729612568'
p2553
sg94
S'0.051558002682092'
p2554
sa(dp2555
g41
S'0.053273154941082417'
p2556
sg155
S'0.22016988297191942'
p2557
sa(dp2558
g54
S'0.052852616199460384'
p2559
sg2133
S'0.09348412769164617'
p2560
sg138
S'0.0763250984447747'
p2561
sg31
S'0.06986822943517883'
p2562
sa(dp2563
g45
S'0.06243905707980011'
p2564
sg60
S'0.09002812145519395'
p2565
sg52
S'0.147339482414713'
p2566
sa(dp2567
g7
S'0.06554322542120791'
p2568
sg155
S'0.1243991739495073'
p2569
sa(dp2570
g11
S'0.06023903575587148'
p2571
sg2133
S'0.12576163829873788'
p2572
sg138
S'0.07288238132155941'
p2573
sg31
S'0.11783573999828093'
p2574
sa(dp2575
g591
S'0.07879786173548353'
p2576
sg166
S'0.08004418980484371'
p2577
sg52
S'0.15829429167889478'
p2578
sa(dp2579
g7
S'0.06225312112939184'
p2580
sg369
S'0.051671600284374515'
p2581
sg160
S'0.05783146004687887'
p2582
sg274
S'0.0656344515868639'
p2583
sa(dp2584
g38
S'0.06181352013780708'
p2585
sg166
S'0.08516116966592108'
p2586
sg897
S'0.0837731394779354'
p2587
sg160
S'0.05783146004687887'
p2588
sg107
S'0.05014923502950729'
p2589
sg73
S'0.09054495634514632'
p2590
sa(dp2591
g897
S'0.22044442053228983'
p2592
sg4
S'0.10440505473952966'
p2593
sa(dp2594
g591
S'0.19679368019113144'
p2595
sg897
S'0.11126173722523565'
p2596
sg4
S'0.09298552906019701'
p2597
sa(dp2598
g163
S'0.1161387841749356'
p2599
sg734
S'0.07606322819494218'
p2600
sg48
S'0.06473248794593148'
p2601
sg160
S'0.08896079304648015'
p2602
sa(dp2603
g225
S'0.09612939366022578'
p2604
sg58
S'0.08009445039241621'
p2605
sg107
S'0.05091377484864888'
p2606
sg4
S'0.17795804684040556'
p2607
sa(dp2608
g7
S'0.08287906941617187'
p2609
sg155
S'0.1193438640338939'
p2610
sg22
S'0.07158567709546133'
p2611
sg2
S'0.07807979076739682'
p2612
sa(dp2613
g27
S'0.10467286369209704'
p2614
sg327
S'0.11228012165275901'
p2615
sg1951
S'0.1111203050289886'
p2616
sg341
S'0.07649676173389848'
p2617
sa(dp2618
g166
S'0.057709785975893886'
p2619
sg179
S'0.06043960383607145'
p2620
sg62
S'0.081629982065173'
p2621
sa(dp2622
g110
S'0.16094315752538865'
p2623
sg22
S'0.1922270443425044'
p2624
sg107
S'0.06662665542689324'
p2625
sa(dp2626
g58
S'0.05180033804194266'
p2627
sg166
S'0.1326906395620349'
p2628
sg341
S'0.07714903423891374'
p2629
sg160
S'0.0729932155798412'
p2630
sg24
S'0.050936056594244584'
p2631
sa(dp2632
g897
S'0.08585323077116162'
p2633
sg327
S'0.07009796414529473'
p2634
sg166
S'0.1463151957697251'
p2635
sg1187
S'0.06253366173271142'
p2636
sg140
S'0.0800967628127862'
p2637
sa(dp2638
g155
S'0.07426955926177402'
p2639
sg341
S'0.06164502978828229'
p2640
sg64
S'0.05860054399563656'
p2641
sa(dp2642
g225
S'0.062180780921364136'
p2643
sg38
S'0.1271909938392531'
p2644
sg166
S'0.05291728263415633'
p2645
sg22
S'0.06449125484567686'
p2646
sg138
S'0.08317489643066392'
p2647
sa(dp2648
g330
S'0.17062247317021376'
p2649
sg369
S'0.1061672175033837'
p2650
sa(dp2651
g734
S'0.06241063532820814'
p2652
sg166
S'0.07286062186612596'
p2653
sg341
S'0.08712070385489853'
p2654
sg160
S'0.06302154596385637'
p2655
sg179
S'0.08580709691860988'
p2656
sa(dp2657
g369
S'0.08827344520441077'
p2658
sg24
S'0.11079448950463144'
p2659
sg140
S'0.06839214125767676'
p2660
sa(dp2661
g897
S'0.08918921653173288'
p2662
sg166
S'0.10497748166418042'
p2663
sg94
S'0.08983002062850187'
p2664
sa(dp2665
g1194
S'0.09140196059171636'
p2666
sg16
S'0.05572639354919636'
p2667
sg22
S'0.16420795100552507'
p2668
sg849
S'0.06100049044124536'
p2669
sg4
S'0.09623889074476158'
p2670
sa(dp2671
g897
S'0.11124688650208177'
p2672
sg107
S'0.06003799051037905'
p2673
sg4
S'0.09477258970772744'
p2674
sa(dp2675
g2
S'0.08212266694133061'
p2676
sg155
S'0.11084989167707739'
p2677
sg479
S'0.05339457963432404'
p2678
sa(dp2679
g34
S'0.07649690437618731'
p2680
sg160
S'0.27324092741245976'
p2681
sa(dp2682
g155
S'0.12559411914669363'
p2683
sg166
S'0.060951805773834154'
p2684
sg514
S'0.09653324098854958'
p2685
sg52
S'0.05466340428455519'
p2686
sg22
S'0.05479324099248293'
p2687
sa(dp2688
g2
S'0.1943155204118841'
p2689
sg382
S'0.05964731974132325'
p2690
sa(dp2691
g604
S'0.06757554394604165'
p2692
sg13
S'0.058654233745820884'
p2693
sg31
S'0.07210937934651522'
p2694
sa(dp2695
g79
S'0.1015664517521183'
p2696
sg11
S'0.059315516374704925'
p2697
sg555
S'0.07910635728493444'
p2698
sa(dp2699
g897
S'0.09129136210404547'
p2700
sg102
S'0.2631307106935345'
p2701
sg4
S'0.0962388907447616'
p2702
sa(dp2703
g1676
S'0.07724140659435559'
p2704
sg52
S'0.11370718752849913'
p2705
sg24
S'0.15308968577509252'
p2706
sa(dp2707
g253
S'0.052932176176754026'
p2708
sg235
S'0.08657605155655144'
p2709
sg22
S'0.1307652243321366'
p2710
sg11
S'0.07959280538345581'
p2711
sa(dp2712
g41
S'0.08943405572858815'
p2713
sg538
S'0.09539347847520993'
p2714
sg382
S'0.05121223883415334'
p2715
sg183
S'0.07237200535940007'
p2716
sa(dp2717
g27
S'0.17881745673241664'
p2718
sg734
S'0.07951871404708226'
p2719
sg138
S'0.18996866594199388'
p2720
sa(dp2721
g2
S'0.13026229180182072'
p2722
sg235
S'0.08455548755548178'
p2723
sg81
S'0.12426346542606129'
p2724
sg22
S'0.059180132301416895'
p2725
sa(dp2726
g740
S'0.07887275869336277'
p2727
sg382
S'0.06706646351561817'
p2728
sg274
S'0.05071213151692996'
p2729
sg64
S'0.06567620777641404'
p2730
sa(dp2731
g38
S'0.18702101153516207'
p2732
sg302
S'0.052486040388102395'
p2733
sg227
S'0.05781275338674667'
p2734
sg160
S'0.06302154596385638'
p2735
sa(dp2736
g740
S'0.1644325792081639'
p2737
sg2
S'0.09209433655731541'
p2738
sg227
S'0.05781275338674667'
p2739
sg341
S'0.12700738231883785'
p2740
sg352
S'0.06322525615569954'
p2741
sa(dp2742
g155
S'0.07707275886484011'
p2743
sg872
S'0.05173118890594283'
p2744
sS'38'
p2745
S'0.06046557137358646'
p2746
sg36
S'0.07815600863825498'
p2747
sg648
S'0.10442310200530222'
p2748
sa(dp2749
g897
S'0.17527775177802604'
p2750
sg155
S'0.08342002049178308'
p2751
sg138
S'0.05802417598475655'
p2752
sa(dp2753
g227
S'0.06546713236678502'
p2754
sg38
S'0.0512421522320907'
p2755
sg4
S'0.11805057785927336'
p2756
sa(dp2757
g897
S'0.11121589387259391'
p2758
sg166
S'0.13786097473591435'
p2759
sg11
S'0.07113858434964504'
p2760
sa(dp2761
g1798
S'0.050402789622698105'
p2762
sg52
S'0.06431480934255175'
p2763
sg166
S'0.06288895225014117'
p2764
sg36
S'0.09218423477786011'
p2765
sg160
S'0.05304987634787153'
p2766
sa(dp2767
g166
S'0.06908938054066194'
p2768
sg24
S'0.12168686524127091'
p2769
sg160
S'0.0582802378397858'
p2770
sg11
S'0.08122513490306849'
p2771
sa(dp2772
g107
S'0.06003799051037905'
p2773
sg153
S'0.1442119475778752'
p2774
sa(dp2775
g382
S'0.07921947842239657'
p2776
sg1798
S'0.0978876597083349'
p2777
sg138
S'0.05275770041499925'
p2778
sg604
S'0.06494612018044182'
p2779
sa(dp2780
g97
S'0.08004240867639671'
p2781
sg22
S'0.11616320363692616'
p2782
sa(dp2783
g897
S'0.10207406193795356'
p2784
sg155
S'0.14747324910184653'
p2785
sg4
S'0.11576460228757764'
p2786
sa(dp2787
g155
S'0.08342002049178306'
p2788
sg166
S'0.076010708435912'
p2789
sg11
S'0.15935129314216903'
p2790
sg160
S'0.24999114587706917'
p2791
sa(dp2792
g22
S'0.059894850145874264'
p2793
sg352
S'0.11327807880920916'
p2794
sa(dp2795
g166
S'0.08283229148211078'
p2796
sg22
S'0.0744629244616617'
p2797
sg227
S'0.05781275338674667'
p2798
sg11
S'0.09387892224713337'
p2799
sg160
S'0.07299321557984119'
p2800
sg107
S'0.05464987945838486'
p2801
sa(dp2802
g897
S'0.07978272374052495'
p2803
sg36
S'0.10405551765882061'
p2804
sg16
S'0.0517619345852392'
p2805
sg22
S'0.12937552202952696'
p2806
sg230
S'0.07181046199411663'
p2807
sa(dp2808
g155
S'0.09398120093246158'
p2809
sg166
S'0.053318764397806834'
p2810
sg11
S'0.07959280538345581'
p2811
sg179
S'0.05584087590583651'
p2812
sa(dp2813
g1187
S'0.07375783199688574'
p2814
sg11
S'0.09387892224713336'
p2815
sg160
S'0.053049876347871554'
p2816
sa(dp2817
g85
S'0.08004333022108721'
p2818
sg166
S'0.05740514348789873'
p2819
sg11
S'0.05039563940963968'
p2820
sa(dp2821
g243
S'0.07075093313885254'
p2822
sg34
S'0.05034065933977661'
p2823
sg11
S'0.07393558301516373'
p2824
sg160
S'0.053049876347871554'
p2825
sa(dp2826
g85
S'0.10065545991281474'
p2827
sg166
S'0.09099899906902545'
p2828
sg160
S'0.09114466563233109'
p2829
sg155
S'0.09986932793121217'
p2830
sa(dp2831
g85
S'0.11161026917699654'
p2832
sg227
S'0.10733193962097466'
p2833
sg160
S'0.05828023783978578'
p2834
sa(dp2835
g230
S'0.05031750013869594'
p2836
sg155
S'0.06218068918380018'
p2837
sg166
S'0.06449316407838027'
p2838
sg31
S'0.08064117464197079'
p2839
sa(dp2840
g107
S'0.0819476090387426'
p2841
sg243
S'0.09963611846740716'
p2842
sg160
S'0.08018985636814935'
p2843
sa(dp2844
g155
S'0.09090655244510776'
p2845
sg79
S'0.10242303745964325'
p2846
sg160
S'0.05304987634787155'
p2847
sg107
S'0.06462154907436968'
p2848
sa(dp2849
g146
S'0.05713778036469785'
p2850
sg166
S'0.32034202796537126'
p2851
sg52
S'0.1191160210523539'
p2852
sa(dp2853
g1187
S'0.07773965766160387'
p2854
sg327
S'0.13722546658056295'
p2855
sg138
S'0.05275770041499925'
p2856
sa(dp2857
g107
S'0.062226730120669885'
p2858
sg572
S'0.05230903890342492'
p2859
sg166
S'0.11231509431257143'
p2860
sg22
S'0.062130853640873965'
p2861
sg64
S'0.12770460462166358'
p2862
sa(dp2863
g22
S'0.050029671071407836'
p2864
sg1089
S'0.1760479483763967'
p2865
sa(dp2866
g740
S'0.264149275368012'
p2867
sg327
S'0.07270818183509042'
p2868
sg155
S'0.06099154359715329'
p2869
sa(dp2870
g166
S'0.10404409060067132'
p2871
sg24
S'0.051639033369363485'
p2872
sa(dp2873
g41
S'0.05368282314854168'
p2874
sg110
S'0.12450134443001745'
p2875
sg73
S'0.05878423739181513'
p2876
sa(dp2877
g73
S'0.16886765948555627'
p2878
sg166
S'0.06449316407838024'
p2879
sg45
S'0.0692684622029041'
p2880
sS'17'
p2881
S'0.06396629579159994'
p2882
sa(dp2883
g166
S'0.12699564321082774'
p2884
sg648
S'0.11396186289551895'
p2885
sa(dp2886
g166
S'0.3407622795473726'
p2887
sa(dp2888
g9
S'0.1001574643467607'
p2889
sg4
S'0.10572739897190919'
p2890
sa(dp2891
g166
S'0.06686024720590296'
p2892
sg75
S'0.13890051181876248'
p2893
sa(dp2894
g197
S'0.1996481031382388'
p2895
sa(dp2896
g24
S'0.13792999891586727'
p2897
sg384
S'0.07766175617231519'
p2898
sa(dp2899
g580
S'0.07974716661966955'
p2900
sg22
S'0.0818044686742378'
p2901
sg179
S'0.06140267254837334'
p2902
sg94
S'0.06838434844163516'
p2903
sa(dp2904
g740
S'0.054744213432330865'
p2905
sg85
S'0.18136715953501784'
p2906
sg22
S'0.054519585229692066'
p2907
sg41
S'0.05368282314854169'
p2908
sa(dp2909
g1676
S'0.10107714038053198'
p2910
sg16
S'0.055726393549196375'
p2911
sg24
S'0.06090772621022942'
p2912
sg140
S'0.08450166540622345'
p2913
sa(dp2914
g107
S'0.12162173745074843'
p2915
sg243
S'0.07145585071375998'
p2916
sg9
S'0.06397330308423102'
p2917
sg138
S'0.06553151403190527'
p2918
sg1120
S'0.09505367996826442'
p2919
sa(dp2920
g126
S'0.2951434711615371'
p2921
sg16
S'0.06028755494626411'
p2922
sa(dp2923
g155
S'0.14368856498793925'
p2924
sg243
S'0.09963611846740715'
p2925
sg22
S'0.07084965941005603'
p2926
sg984
S'0.0784667739388964'
p2927
sg34
S'0.05530391023148023'
p2928
sa(dp2929
g85
S'0.06577574754941967'
p2930
sg253
S'0.10304366676012794'
p2931
sg22
S'0.05918013230141689'
p2932
sa(dp2933
g740
S'0.060141625180550426'
p2934
sg102
S'0.05902263687048359'
p2935
sg64
S'0.08111059334030914'
p2936
sg977
S'0.06796168809885755'
p2937
sg94
S'0.10124877623418044'
p2938
sa(dp2939
g155
S'0.07795970940284863'
p2940
sg45
S'0.07339386634398189'
p2941
sg197
S'0.06819039196805746'
p2942
sa(dp2943
g22
S'0.0546772350278398'
p2944
sg166
S'0.07022720646542832'
p2945
sg518
S'0.13082387118221225'
p2946
sg179
S'0.072749317973458'
p2947
sg24
S'0.06009325440317422'
p2948
sa(dp2949
g744
S'0.07213570969104541'
p2950
sg9
S'0.1111117989185714'
p2951
sg116
S'0.20914970465232066'
p2952
sg179
S'0.06225584939552285'
p2953
sa(dp2954
g73
S'0.09744439615966989'
p2955
sg45
S'0.07339386634398189'
p2956
sa(dp2957
g110
S'0.1731889987737801'
p2958
sg34
S'0.05113424127475504'
p2959
sg143
S'0.05756553114900018'
p2960
sa(dp2961
g85
S'0.08004333022108723'
p2962
sg34
S'0.11822660585711259'
p2963
sg216
S'0.09615006248437395'
p2964
sg160
S'0.09679181235317291'
p2965
sa(dp2966
g155
S'0.11934386403389388'
p2967
sg16
S'0.08951728024557361'
p2968
sg45
S'0.06509491222564702'
p2969
sg73
S'0.07520135164138808'
p2970
sg85
S'0.07767944524101884'
p2971
sa(dp2972
g740
S'0.05884453862241141'
p2973
sg155
S'0.28374698891968325'
p2974
sg34
S'0.08680084470062384'
p2975
sg166
S'0.06526158377702092'
p2976
sa(dp2977
g85
S'0.20303266599955566'
p2978
sg45
S'0.22601358937112576'
p2979
sa(dp2980
g34
S'0.05530391023148023'
p2981
sg166
S'0.3539144214093881'
p2982
sa(dp2983
g155
S'0.22079451643962292'
p2984
sg243
S'0.0599843406509765'
p2985
sa(dp2986
g155
S'0.06861853783102932'
p2987
sg166
S'0.07022720646542832'
p2988
sg94
S'0.22185908639942498'
p2989
sa(dp2990
g73
S'0.0940875856125347'
p2991
sg34
S'0.06888762437364628'
p2992
sa(dp2993
g1089
S'0.052244001552641514'
p2994
sg160
S'0.05304987634787155'
p2995
sa(dp2996
g155
S'0.15494456974025775'
p2997
sg34
S'0.06639342062014474'
p2998
sg166
S'0.08296464371900725'
p2999
sg92
S'0.1559984306704102'
p3000
sa(dp3001
g155
S'0.06016431679721856'
p3002
sg227
S'0.05746926209787199'
p3003
sg166
S'0.20549474300640044'
p3004
sg22
S'0.06313145606165056'
p3005
sa(dp3006
g22
S'0.08443459407764652'
p3007
sg75
S'0.061621115395030124'
p3008
sg94
S'0.09216220212351026'
p3009
sa(dp3010
g155
S'0.331047273301643'
p3011
sg79
S'0.06802996410583387'
p3012
sg85
S'0.07475738765084085'
p3013
sa(dp3014
g2
S'0.10206600617330025'
p3015
sg73
S'0.06875590700779995'
p3016
sg34
S'0.10019900741970073'
p3017
sg312
S'0.09150534153256204'
p3018
sa(dp3019
g143
S'0.07926803840798675'
p3020
sg64
S'0.11467845304031649'
p3021
sa(dp3022
g16
S'0.060287554946264116'
p3023
sg153
S'0.06555627516394281'
p3024
sg2881
S'0.06646354829057331'
p3025
sa(dp3026
g94
S'0.17193555905138885'
p3027
sg977
S'0.19149416960426255'
p3028
sa(dp3029
g302
S'0.14529928555491078'
p3030
sg1089
S'0.10121414625922988'
p3031
sa(dp3032
g102
S'0.293045719541489'
p3033
sg94
S'0.09216220212351026'
p3034
sa(dp3035
g102
S'0.12250480840378343'
p3036
sg166
S'0.12176301458595735'
p3037
sg36
S'0.13034478653072976'
p3038
sa(dp3039
g1733
S'0.05063605439217127'
p3040
sg166
S'0.11274730033006522'
p3041
sg518
S'0.10444710668592531'
p3042
sg143
S'0.05792630177497256'
p3043
sg24
S'0.05093605659424458'
p3044
sa(dp3045
g225
S'0.06117258076781976'
p3046
sg382
S'0.13965108545292307'
p3047
sg720
S'0.06871637772492856'
p3048
sg52
S'0.05452764029182385'
p3049
sg75
S'0.11987763012732439'
p3050
sa(dp3051
g327
S'0.0627365122191056'
p3052
sg235
S'0.052257243566638495'
p3053
sg166
S'0.09280396109809559'
p3054
sa(dp3055
g419
S'0.06841105083712587'
p3056
sg166
S'0.15672785465411612'
p3057
sa(dp3058
g160
S'0.0630215459638564'
p3059
sa(dp3060
g166
S'0.07664617898515864'
p3061
sg22
S'0.07859899211261127'
p3062
sg48
S'0.0647324879459315'
p3063
sg555
S'0.09991179884545555'
p3064
sa(dp3065
g52
S'0.05452764029182386'
p3066
sg1345
S'0.07091138015573151'
p3067
sg160
S'0.12951916983767686'
p3068
sa(dp3069
g897
S'0.07838245870953643'
p3070
sg85
S'0.10065545991281476'
p3071
sg302
S'0.1014800484981837'
p3072
sg648
S'0.08053530514593486'
p3073
sa(dp3074
g38
S'0.06424252642006094'
p3075
sg97
S'0.052430580270742634'
p3076
sg11
S'0.0910932621695826'
p3077
sg197
S'0.06768726919607031'
p3078
sg256
S'0.05988058907881189'
p3079
sg1733
S'0.05927317322313033'
p3080
sa(dp3081
g34
S'0.15005735549962482'
p3082
sg22
S'0.07446292446166168'
p3083
sg31
S'0.07613855554041166'
p3084
sa(dp3085
g1187
S'0.06558664275482547'
p3086
sg73
S'0.05949052532455063'
p3087
sg34
S'0.06135289344049704'
p3088
sg166
S'0.05234014917160185'
p3089
sa(dp3090
g146
S'0.07308926244113899'
p3091
sg543
S'0.061673150768921846'
p3092
sg166
S'0.05291728263415632'
p3093
sg148
S'0.06355890288210822'
p3094
sa(dp3095
g110
S'0.054699657118123725'
p3096
sg45
S'0.06680713186078449'
p3097
sg274
S'0.12138316526664297'
p3098
sg622
S'0.051230241622031804'
p3099
sa(dp3100
g155
S'0.06981708147053245'
p3101
sg34
S'0.12346971685262113'
p3102
sa(dp3103
g155
S'0.12779808506770463'
p3104
sg518
S'0.07164432394553699'
p3105
sg24
S'0.06009325440317425'
p3106
sg13
S'0.0741480426554523'
p3107
sa(dp3108
g155
S'0.12779808506770463'
p3109
sg518
S'0.09700698704696924'
p3110
sg22
S'0.06313145606165058'
p3111
sa(dp3112
g34
S'0.12014234665167037'
p3113
sg22
S'0.13429294215757065'
p3114
sg143
S'0.07786964100694221'
p3115
sa(dp3116
g897
S'0.13315650503044535'
p3117
sg85
S'0.10065545991281476'
p3118
sg648
S'0.10244492367429842'
p3119
sa(dp3120
g1345
S'0.1300909273924068'
p3121
sg160
S'0.1379733908714876'
p3122
sa(dp3123
g41
S'0.13851001837335863'
p3124
sg54
S'0.1333733772414793'
p3125
sg94
S'0.10349999192607437'
p3126
sa(dp3127
g16
S'0.0602875549462641'
p3128
sg45
S'0.4456246588913434'
p3129
sa(dp3130
g110
S'0.13447301404600231'
p3131
sg45
S'0.06680713186078449'
p3132
sa(dp3133
g166
S'0.07664617898515867'
p3134
sg52
S'0.05407791858899448'
p3135
sg143
S'0.08275094244313508'
p3136
sa(dp3137
g518
S'0.07092565281665784'
p3138
sg22
S'0.09275927793841958'
p3139
sa(dp3140
g327
S'0.20397727969434845'
p3141
sg34
S'0.08279674199557742'
p3142
sg538
S'0.05620280897005155'
p3143
sa(dp3144
g1187
S'0.0659684742066647'
p3145
sg166
S'0.18310818811385365'
p3146
sa(dp3147
g897
S'0.08585323077116162'
p3148
sg34
S'0.19485599884953778'
p3149
sg138
S'0.06206345413684851'
p3150
sg64
S'0.06259596746468132'
p3151
sa(dp3152
g734
S'0.0899502888001327'
p3153
sg312
S'0.11869712302001122'
p3154
sg160
S'0.053711761671967576'
p3155
sg13
S'0.12305569076102303'
p3156
sa(dp3157
g327
S'0.15822497354430307'
p3158
sg81
S'0.06936069804600684'
p3159
sg143
S'0.07145675282768348'
p3160
sg538
S'0.15685788250015129'
p3161
sa(dp3162
g34
S'0.07721352875984377'
p3163
sg4
S'0.09477258970772742'
p3164
sa(dp3165
g155
S'0.08733598169162873'
p3166
sg166
S'0.09668734493350968'
p3167
sg102
S'0.06589847613578836'
p3168
sa(dp3169
g163
S'0.05542905480103728'
p3170
sg734
S'0.0613674568553648'
p3171
sg22
S'0.07158567709546132'
p3172
sg143
S'0.08292819425043245'
p3173
sg54
S'0.05728538793718249'
p3174
sa(dp3175
g538
S'0.0624917005941012'
p3176
sg146
S'0.05261880584831058'
p3177
sg64
S'0.1385942972170845'
p3178
sa(dp3179
g1189
S'0.11146976460472827'
p3180
sg166
S'0.09431163089593014'
p3181
sg24
S'0.07419264458459515'
p3182
sg20
S'0.06572530844696825'
p3183
sg197
S'0.0935607132047628'
p3184
sa(dp3185
g253
S'0.05293217617675404'
p3186
sg94
S'0.09504577089226364'
p3187
sg45
S'0.05664069119183629'
p3188
sg197
S'0.10335030872675799'
p3189
sa(dp3190
g409
S'0.05160557191796145'
p3191
sg85
S'0.09951185074895799'
p3192
sg166
S'0.10095220879871546'
p3193
sg73
S'0.08379655513810745'
p3194
sa(dp3195
g256
S'0.09656865232076713'
p3196
sg1733
S'0.0886236238166945'
p3197
sg11
S'0.09843087481797363'
p3198
sg138
S'0.06120391023584674'
p3199
sa(dp3200
g1187
S'0.08989267256838228'
p3201
sg110
S'0.05451242568168534'
p3202
sg34
S'0.09781193816083224'
p3203
sg166
S'0.052340149171601846'
p3204
sa(dp3205
g22
S'0.06313145606165056'
p3206
sg36
S'0.0697017876044442'
p3207
sg62
S'0.0500562577614559'
p3208
sg75
S'0.07760652495827061'
p3209
sa(dp3210
g155
S'0.09090655244510772'
p3211
sg302
S'0.06245771000408722'
p3212
sg153
S'0.07143962481864762'
p3213
sg723
S'0.05090122370500268'
p3214
sa(dp3215
g555
S'0.12582746081492685'
p3216
sa(dp3217
g636
S'0.08600035943509139'
p3218
sg518
S'0.14566882609219703'
p3219
sg22
S'0.05488217861702607'
p3220
sa(dp3221
g166
S'0.05331876439780684'
p3222
sg94
S'0.26413019156847883'
p3223
sa(dp3224
g734
S'0.16332641528404315'
p3225
sg312
S'0.08200905977805598'
p3226
sg160
S'0.06104937432035862'
p3227
sg13
S'0.06435478957389468'
p3228
sg155
S'0.05221799266278313'
p3229
sa(dp3230
g538
S'0.07464471550087963'
p3231
sg64
S'0.10213525249674929'
p3232
sa(dp3233
g734
S'0.05243896571222331'
p3234
sg110
S'0.06467132673410854'
p3235
sg36
S'0.0822125651618753'
p3236
sg73
S'0.05878423739181511'
p3237
sa(dp3238
g327
S'0.22227820215436647'
p3239
sg34
S'0.1010976644555955'
p3240
sg538
S'0.07450373143006965'
p3241
sa(dp3242
g897
S'0.15506612355880892'
p3243
sg41
S'0.08088520747210091'
p3244
sg166
S'0.06908938054066192'
p3245
sg16
S'0.05026583239582416'
p3246
sa(dp3247
g73
S'0.05949052532455062'
p3248
sg22
S'0.09075200701938964'
p3249
sg555
S'0.08775878393867712'
p3250
sa(dp3251
g897
S'0.11967011490640468'
p3252
sg34
S'0.16949333574810557'
p3253
sg138
S'0.07897189620447002'
p3254
sg648
S'0.06215199683624838'
p3255
sa(dp3256
g155
S'0.07162310111338437'
p3257
sg166
S'0.11240022551175402'
p3258
sg102
S'0.08161135671403273'
p3259
sg382
S'0.06692511941239775'
p3260
sa(dp3261
g327
S'0.13992405108428496'
p3262
sg81
S'0.06936069804600684'
p3263
sg143
S'0.05315583036766533'
p3264
sg538
S'0.12940649881012406'
p3265
sa(dp3266
g166
S'0.07601070843591201'
p3267
sg24
S'0.07419264458459514'
p3268
sg20
S'0.06572530844696824'
p3269
sg197
S'0.08441025197475371'
p3270
sa(dp3271
g22
S'0.0715856770954613'
p3272
sg243
S'0.13607232995527327'
p3273
sg166
S'0.08713564853304981'
p3274
sg1345
S'0.07936560118954225'
p3275
sg197
S'0.10335030872675793'
p3276
sa(dp3277
g744
S'0.1209503063929301'
p3278
sg36
S'0.06226922592990564'
p3279
sa(dp3280
g155
S'0.06981708147053244'
p3281
sg34
S'0.1098241937328774'
p3282
sg22
S'0.07460618826941821'
p3283
sa(dp3284
g849
S'0.12003007544616147'
p3285
sg1345
S'0.12250353281970992'
p3286
sg1189
S'0.06571745845468292'
p3287
sa(dp3288
g34
S'0.07721352875984377'
p3289
sg22
S'0.07084965941005601'
p3290
sg62
S'0.07581669944453528'
p3291
sa(dp3292
g16
S'0.05566659962918423'
p3293
sg9
S'0.10463024998767725'
p3294
sg143
S'0.05709653196328279'
p3295
sa(dp3296
g52
S'0.11484299312288654'
p3297
sg22
S'0.2244351709939522'
p3298
sa(dp3299
g90
S'0.05567764308981977'
p3300
sg79
S'0.06253635899570398'
p3301
sg166
S'0.10277563071408038'
p3302
sg24
S'0.060907726210229385'
p3303
sg197
S'0.06207064343084767'
p3304
sa(dp3305
g36
S'0.06124756657063344'
p3306
sg604
S'0.06208808345748326'
p3307
sg22
S'0.1730363295011904'
p3308
sg555
S'0.13713721558823738'
p3309
sa(dp3310
g235
S'0.051535723740805194'
p3311
sg166
S'0.08879919389193706'
p3312
sg13
S'0.0944354293858793'
p3313
sa(dp3314
g22
S'0.05467723502783981'
p3315
sg166
S'0.08713564853304984'
p3316
sg518
S'0.1561865342836445'
p3317
sa(dp3318
g155
S'0.09986932793121217'
p3319
sg45
S'0.07339386634398187'
p3320
sg24
S'0.05595800965618023'
p3321
sg197
S'0.10105481976060277'
p3322
sa(dp3323
g107
S'0.08233953600513755'
p3324
sg243
S'0.10288161187024873'
p3325
sg9
S'0.08754262395159755'
p3326
sg1120
S'0.07148435910089791'
p3327
sa(dp3328
g155
S'0.09710812771001988'
p3329
sg34
S'0.08253314749339001'
p3330
sg22
S'0.07460618826941823'
p3331
sa(dp3332
g849
S'0.15941571244245265'
p3333
sg22
S'0.05429296229905444'
p3334
sg1189
S'0.06297539045148053'
p3335
sa(dp3336
g11
S'0.11408956269561381'
p3337
sg94
S'0.13411320402672575'
p3338
sa(dp3339
g90
S'0.051092358059574704'
p3340
sg155
S'0.055968636801755886'
p3341
sg243
S'0.07407476133279535'
p3342
sg302
S'0.057314058318919316'
p3343
sa(dp3344
g85
S'0.10065545991281474'
p3345
sg34
S'0.11007795655238911'
p3346
sg166
S'0.0800441898048437'
p3347
sg45
S'0.08434867560816366'
p3348
sa(dp3349
g73
S'0.07164354023132904'
p3350
sg369
S'0.06862667495422815'
p3351
sg166
S'0.1374112535190507'
p3352
sg34
S'0.06135289344049705'
p3353
sa(dp3354
g419
S'0.06124949395776383'
p3355
sg22
S'0.05467723502783981'
p3356
sg36
S'0.10351867173968722'
p3357
sg143
S'0.09138241528424319'
p3358
sg1476
S'0.06043325056297708'
p3359
sa(dp3360
g1603
S'0.07126118634914097'
p3361
sg16
S'0.1255280808610901'
p3362
sg253
S'0.1222629929846774'
p3363
sg1980
S'0.07044703229550975'
p3364
sa(dp3365
g126
S'0.2219397813214646'
p3366
sg514
S'0.056329751713453'
p3367
sg16
S'0.051137093716255036'
p3368
sg64
S'0.07690146645565467'
p3369
sa(dp3370
g41
S'0.1892353445762232'
p3371
sg94
S'0.05277466572320986'
p3372
sg24
S'0.07700169647079576'
p3373
sg54
S'0.12491915620766854'
p3374
sg48
S'0.05348524957786006'
p3375
sa(dp3376
g591
S'0.06081114915269078'
p3377
sg1194
S'0.0859469988257386'
p3378
sg166
S'0.07022720646542832'
p3379
sg22
S'0.1138567822645151'
p3380
sg197
S'0.05262498252389339'
p3381
sa(dp3382
g155
S'0.16577417156186466'
p3383
sg274
S'0.05648399035685484'
p3384
sg73
S'0.06309357265511914'
p3385
sa(dp3386
g110
S'0.06849583575235427'
p3387
sg16
S'0.06943801617627318'
p3388
sg45
S'0.33581912413123466'
p3389
sa(dp3390
g85
S'0.06922522420720806'
p3391
sg166
S'0.06177298543161758'
p3392
sg45
S'0.0904575753270793'
p3393
sg24
S'0.11081858060603879'
p3394
sg94
S'0.05277466572320985'
p3395
sa(dp3396
g22
S'0.11434960292560101'
p3397
sg75
S'0.07159278501101494'
p3398
sg94
S'0.12207721097146475'
p3399
sa(dp3400
g1194
S'0.0690385567581171'
p3401
sg197
S'0.07798764562532567'
p3402
sg251
S'0.059866647532308234'
p3403
sg34
S'0.0595884623085658'
p3404
sg94
S'0.09504577089226363'
p3405
sa(dp3406
g1231
S'0.05989298968068958'
p3407
sg216
S'0.0527406012074279'
p3408
sg52
S'0.1390698506299314'
p3409
sg34
S'0.051134241274755035'
p3410
sg2881
S'0.06140647053911454'
p3411
sa(dp3412
g849
S'0.17156872734923106'
p3413
sS'81'
p3414
S'0.06192123409239407'
p3415
sg22
S'0.07859899211261126'
p3416
sg1189
S'0.05082237554470211'
p3417
sa(dp3418
g34
S'0.08495112540999807'
p3419
sg62
S'0.14305268913337427'
p3420
sg1089
S'0.20492391913234384'
p3421
sa(dp3422
g330
S'0.19728089312719962'
p3423
sg166
S'0.0652615837770209'
p3424
sg143
S'0.05349518972534668'
p3425
sg85
S'0.07218688993196501'
p3426
sa(dp3427
g58
S'0.07223801010329402'
p3428
sg243
S'0.06359941042463786'
p3429
sg302
S'0.08063469889103063'
p3430
sg38
S'0.05307210399739072'
p3431
sg312
S'0.07209487273163184'
p3432
sa(dp3433
g38
S'0.07853319847157814'
p3434
sg24
S'0.05605686019740497'
p3435
sg227
S'0.05182160924704131'
p3436
sg31
S'0.17241783247725576'
p3437
sa(dp3438
g138
S'0.05275770041499925'
p3439
sg160
S'0.10111380795325856'
p3440
sg264
S'0.08744213390439752'
p3441
sa(dp3442
g409
S'0.102172902770693'
p3443
sg166
S'0.0828322914821108'
p3444
sg160
S'0.09293655481181085'
p3445
sg197
S'0.08201398266281734'
p3446
sa(dp3447
g155
S'0.1447065271353261'
p3448
sg153
S'0.06902245103424995'
p3449
sa(dp3450
g155
S'0.2796839847629055'
p3451
sg79
S'0.07536757675422487'
p3452
sg85
S'0.07475738765084078'
p3453
sa(dp3454
g1187
S'0.0540794406989007'
p3455
sg155
S'0.06861853783102935'
p3456
sg94
S'0.19649642329799283'
p3457
sa(dp3458
g155
S'0.10358128120152044'
p3459
sg34
S'0.05171819532336264'
p3460
sg92
S'0.18534888126397436'
p3461
sg73
S'0.05793136799135782'
p3462
sa(dp3463
g85
S'0.09575621079933158'
p3464
sg34
S'0.11037016556799041'
p3465
sg216
S'0.0725807416170074'
p3466
sg160
S'0.08893537206405072'
p3467
sg155
S'0.06376666082426216'
p3468
sa(dp3469
g744
S'0.07861725862193956'
p3470
sg9
S'0.08518560319499482'
p3471
sg116
S'0.14433421534337926'
p3472
sa(dp3473
g1676
S'0.12102047961250158'
p3474
sg64
S'0.053887981756024946'
p3475
sg16
S'0.05572639354919635'
p3476
sg24
S'0.05093605659424459'
p3477
sg140
S'0.08450166540622342'
p3478
sa(dp3479
g34
S'0.066258719495662'
p3480
sg166
S'0.310095184352661'
p3481
sa(dp3482
g382
S'0.12977664172537526'
p3483
sg166
S'0.06526158377702095'
p3484
sg102
S'0.06589847613578836'
p3485
sg75
S'0.06426268540472015'
p3486
sS'78'
p3487
S'0.05573876413117901'
p3488
sa(dp3489
g849
S'0.23357560202948255'
p3490
sg22
S'0.10189723450890564'
p3491
sa(dp3492
g155
S'0.05591022053513997'
p3493
sg81
S'0.05955199075902171'
p3494
sg60
S'0.06456530127522946'
p3495
sg45
S'0.06834862389553122'
p3496
sg3487
S'0.08716452528766773'
p3497
sa(dp3498
g225
S'0.052209111305379315'
p3499
sg166
S'0.052917282634156335'
p3500
sg24
S'0.05093605659424458'
p3501
sg140
S'0.06455832617425378'
p3502
sa(dp3503
g34
S'0.22005366044571348'
p3504
sg166
S'0.08516116966592109'
p3505
sa(dp3506
g740
S'0.05098809833328922'
p3507
sg155
S'0.2680341083414389'
p3508
sg34
S'0.07108796412237947'
p3509
sg166
S'0.05740514348789873'
p3510
sa(dp3511
g740
S'0.11383962064626668'
p3512
sg3414
S'0.11859401546121164'
p3513
sg253
S'0.057045890132322544'
p3514
sg1045
S'0.1266089157032873'
p3515
sa(dp3516
g740
S'0.0910257736001412'
p3517
sg34
S'0.06135289344049704'
p3518
sg22
S'0.1636700964600601'
p3519
sa(dp3520
g155
S'0.23770295850724443'
p3521
sg243
S'0.06843856168478726'
p3522
sa(dp3523
g604
S'0.11311895531732141'
p3524
sg34
S'0.07028399857174626'
p3525
sg155
S'0.09090655244510777'
p3526
sg85
S'0.09162213299115445'
p3527
sa(dp3528
g155
S'0.09986932793121217'
p3529
sg45
S'0.07339386634398189'
p3530
sg110
S'0.06009267591303042'
p3531
sa(dp3532
g110
S'0.16473477773996936'
p3533
sg62
S'0.05851047879526664'
p3534
sg143
S'0.09138241528424318'
p3535
sg13
S'0.08260226368926302'
p3536
sa(dp3537
g34
S'0.07991205179870776'
p3538
sg45
S'0.1022738452952661'
p3539
sg352
S'0.1368197348565061'
p3540
sa(dp3541
g734
S'0.0990500541647537'
p3542
sg327
S'0.08585047047342857'
p3543
sa(dp3544
g85
S'0.23048404968958291'
p3545
sg45
S'0.09790713215099887'
p3546
sg110
S'0.06849583575235427'
p3547
sa(dp3548
g1089
S'0.06367259988650359'
p3549
sg138
S'0.05275770041499923'
p3550
sg102
S'0.05332534883522435'
p3551
sg4
S'0.056526484339861786'
p3552
sg1345
S'0.07762968450551667'
p3553
sg555
S'0.05129973921834189'
p3554
sa(dp3555
g253
S'0.06644182184009163'
p3556
sg327
S'0.08502128370423054'
p3557
sg553
S'0.08391509608470146'
p3558
sg24
S'0.07419264458459512'
p3559
sg54
S'0.06200307742946941'
p3560
sa(dp3561
g143
S'0.06230629159767443'
p3562
sg92
S'0.24944255302884463'
p3563
sa(dp3564
g155
S'0.11088964300008311'
p3565
sg45
S'0.15809134359756535'
p3566
sg85
S'0.06922522420720809'
p3567
sa(dp3568
g166
S'0.13091347581596643'
p3569
sg1089
S'0.07539287484629693'
p3570
sg160
S'0.16763699480698765'
p3571
sa(dp3572
g580
S'0.07974716661966953'
p3573
sg153
S'0.06752828272860277'
p3574
sg341
S'0.05189098304139656'
p3575
sa(dp3576
g409
S'0.06375858682473984'
p3577
sg85
S'0.11166486565573637'
p3578
sg166
S'0.06449316407838022'
p3579
sa(dp3580
g518
S'0.06456042822198606'
p3581
sg16
S'0.2053014377889687'
p3582
sg36
S'0.09218423477786014'
p3583
sg24
S'0.07087939582621423'
p3584
sa(dp3585
g41
S'0.07346113866751819'
p3586
sg34
S'0.09617867061313372'
p3587
sg92
S'0.07177691287299043'
p3588
sa(dp3589
g155
S'0.09986932793121218'
p3590
sg140
S'0.07092334352113783'
p3591
sg166
S'0.06908938054066192'
p3592
sg64
S'0.14683944892539977'
p3593
sa(dp3594
g153
S'0.05640581393393373'
p3595
sg16
S'0.06943801617627315'
p3596
sg102
S'0.05845157979371994'
p3597
sa(dp3598
g102
S'0.3129890587734588'
p3599
sg94
S'0.0921622021235103'
p3600
sa(dp3601
g327
S'0.10559399374815127'
p3602
sg34
S'0.08457363666382098'
p3603
sg341
S'0.06310968911960156'
p3604
sg2881
S'0.09893053642124745'
p3605
sg155
S'0.05908892798326715'
p3606
sa(dp3607
g73
S'0.16799555771722346'
p3608
sg166
S'0.12699031960935353'
p3609
sg1089
S'0.05311876197199551'
p3610
sg2881
S'0.1193346002660584'
p3611
sg330
S'0.05217572846589636'
p3612
sa(dp3613
g518
S'0.12236965014840152'
p3614
sg81
S'0.06408318199494373'
p3615
sg52
S'0.13061562959612066'
p3616
sg73
S'0.06674713060757732'
p3617
sa(dp3618
g64
S'0.1030202118686727'
p3619
sg102
S'0.11379668319139251'
p3620
sg24
S'0.05595800965618025'
p3621
sg94
S'0.11220358549836225'
p3622
sa(dp3623
g38
S'0.09591193448120265'
p3624
sg302
S'0.16720890408327432'
p3625
sg1089
S'0.05739490920250275'
p3626
sa(dp3627
g977
S'0.18152249998827777'
p3628
sg94
S'0.1819072286673737'
p3629
sa(dp3630
g110
S'0.09023519492328898'
p3631
sg97
S'0.22897952614042077'
p3632
sa(dp3633
g73
S'0.10839920542385166'
p3634
sg216
S'0.0902498268568439'
p3635
sg16
S'0.09408506945255128'
p3636
sa(dp3637
g27
S'0.18180192669419268'
p3638
sg38
S'0.0512421522320907'
p3639
sa(dp3640
g73
S'0.09867091585575442'
p3641
sg166
S'0.0928039610980956'
p3642
sg16
S'0.07566973278116602'
p3643
sg54
S'0.18722758065099623'
p3644
sa(dp3645
g155
S'0.1327337557237575'
p3646
sg34
S'0.06625871949566202'
p3647
sg16
S'0.08313026018836951'
p3648
sg13
S'0.07416992107136683'
p3649
sa(dp3650
g419
S'0.0571431828061185'
p3651
sg60
S'0.19415573841555844'
p3652
sg22
S'0.05918013230141689'
p3653
sa(dp3654
g419
S'0.07224316887983924'
p3655
sg60
S'0.20160858069732127'
p3656
sa(dp3657
g110
S'0.06467132673410855'
p3658
sg38
S'0.0673609761433442'
p3659
sg553
S'0.12136106745820835'
p3660
sg24
S'0.050936056594244584'
p3661
sa(dp3662
g81
S'0.07996710626626569'
p3663
sg22
S'0.05429296229905446'
p3664
sa(dp3665
g192
S'0.05007650420054186'
p3666
sg110
S'0.0788184554952422'
p3667
sg45
S'0.05711544729612571'
p3668
sg445
S'0.05063614386905822'
p3669
sg140
S'0.0786807355805964'
p3670
sa(dp3671
g100
S'0.05567831583313804'
p3672
sg192
S'0.06515586391459006'
p3673
sg81
S'0.09681208173603402'
p3674
sg1798
S'0.055402371901765966'
p3675
sg60
S'0.08435020365544965'
p3676
sg107
S'0.05014923502950729'
p3677
sa(dp3678
g38
S'0.08011444259782523'
p3679
sg52
S'0.1688237525780206'
p3680
sg143
S'0.062306291597674424'
p3681
sg1120
S'0.08325842651798453'
p3682
sa(dp3683
g60
S'0.161721902233382'
p3684
sg384
S'0.276129218616599'
p3685
sa(dp3686
g38
S'0.07400231595283911'
p3687
sg22
S'0.11466889646678313'
p3688
sg62
S'0.0758166994445353'
p3689
sa(dp3690
g734
S'0.08540453104500996'
p3691
sg81
S'0.10343336636238733'
p3692
sg22
S'0.07460618826941821'
p3693
sa(dp3694
g155
S'0.09986932793121217'
p3695
sg543
S'0.07870851846365558'
p3696
sa(dp3697
g102
S'0.1385463269536637'
p3698
sg160
S'0.1464276119052984'
p3699
sa(dp3700
g52
S'0.15829429167889483'
p3701
sg138
S'0.05851095477181263'
p3702
sa(dp3703
g38
S'0.052092697424475545'
p3704
sg13
S'0.10703434886391212'
p3705
sa(dp3706
g146
S'0.1679338469183149'
p3707
sg38
S'0.07400231595283911'
p3708
sg369
S'0.05090573647901927'
p3709
sa(dp3710
g110
S'0.05469965711812374'
p3711
sg9
S'0.09116883005039464'
p3712
sg179
S'0.0858070969186099'
p3713
sg54
S'0.10745422372311768'
p3714
sa(dp3715
g409
S'0.188930129576352'
p3716
sg54
S'0.052319632867684235'
p3717
sg507
S'0.08973603517974256'
p3718
sa(dp3719
g1187
S'0.05853310712800348'
p3720
sg183
S'0.16664642655470724'
p3721
sg81
S'0.12426346542606125'
p3722
sg94
S'0.11202364589690651'
p3723
sa(dp3724
g225
S'0.09873551470009495'
p3725
sg300
S'0.05730389736740919'
p3726
sa(dp3727
g479
S'0.0805685450834042'
p3728
sg369
S'0.05090573647901925'
p3729
sg81
S'0.05017326816890269'
p3730
sg54
S'0.05231963286768423'
p3731
sa(dp3732
g479
S'0.11368693146170554'
p3733
sg13
S'0.057976384665544056'
p3734
sg64
S'0.12644128231030607'
p3735
sa(dp3736
g153
S'0.12505110946560924'
p3737
sg138
S'0.08652790444130314'
p3738
sa(dp3739
g24
S'0.20051110083401694'
p3740
sa(dp3741
g479
S'0.07333791886629369'
p3742
sg24
S'0.05093605659424459'
p3743
sg54
S'0.09748255410713286'
p3744
sa(dp3745
g225
S'0.05147706234195158'
p3746
sg22
S'0.12721105173972486'
p3747
sg11
S'0.11441533719416395'
p3748
sa(dp3749
g85
S'0.07167879375918478'
p3750
sg34
S'0.06031232895576142'
p3751
sg166
S'0.05291728263415633'
p3752
sg518
S'0.07453209783797086'
p3753
sg107
S'0.054649879458384856'
p3754
sa(dp3755
g41
S'0.0871066617872619'
p3756
sg34
S'0.08253314749339001'
p3757
sa(dp3758
g166
S'0.18254898764195904'
p3759
sg9
S'0.08119716043440979'
p3760
sg116
S'0.06250716941069791'
p3761
sa(dp3762
g341
S'0.09192746223924086'
p3763
sg1459
S'0.16436939536974934'
p3764
sa(dp3765
g85
S'0.07520582093540117'
p3766
sg166
S'0.12525823861227228'
p3767
sg143
S'0.07059792753635671'
p3768
sa(dp3769
g166
S'0.1495642684258291'
p3770
sa(dp3771
g682
S'0.052365035710612164'
p3772
sg34
S'0.0503406593397766'
p3773
sg1089
S'0.052244001552641514'
p3774
sa(dp3775
g256
S'0.09917799243069146'
p3776
sg153
S'0.09922036258182827'
p3777
sg143
S'0.058444912629578266'
p3778
sg264
S'0.050983089184062295'
p3779
sa(dp3780
g85
S'0.19673597000318527'
p3781
sg22
S'0.06644597720583287'
p3782
sg341
S'0.06971968496204027'
p3783
sg138
S'0.05275770041499926'
p3784
sa(dp3785
g155
S'0.2105665878369256'
p3786
sg54
S'0.08751088449114802'
p3787
sa(dp3788
g153
S'0.11140558634586549'
p3789
sg138
S'0.12746447380053427'
p3790
sa(dp3791
g62
S'0.07195629784454641'
p3792
sa(dp3793
g2
S'0.08508800296272245'
p3794
sg153
S'0.09776006322612174'
p3795
sa(dp3796
g34
S'0.05524210125390259'
p3797
sg197
S'0.12587584558988982'
p3798
sa(dp3799
g166
S'0.2822656838018073'
p3800
sg22
S'0.06449125484567687'
p3801
sg699
S'0.08078059330919989'
p3802
sa(dp3803
g22
S'0.08825171138916195'
p3804
sg13
S'0.06509644754171957'
p3805
sg197
S'0.08493927623065865'
p3806
sa(dp3807
g499
S'0.08065513929299811'
p3808
sg417
S'0.05746048499850129'
p3809
sg11
S'0.07027032563888672'
p3810
sg160
S'0.09114466563233113'
p3811
sg143
S'0.05268263679670912'
p3812
sa(dp3813
g85
S'0.09951185074895796'
p3814
sg723
S'0.06203608365328557'
p3815
sa(dp3816
g81
S'0.11590212375399338'
p3817
sg1089
S'0.24362666669359298'
p3818
sa(dp3819
g327
S'0.09265152106706004'
p3820
sg64
S'0.05388798175602494'
p3821
sg507
S'0.1514843596324892'
p3822
sg85
S'0.09162213299115442'
p3823
sa(dp3824
g302
S'0.08240104923605686'
p3825
sg22
S'0.0744629244616617'
p3826
sg138
S'0.0632315571986943'
p3827
sg507
S'0.09165434193658034'
p3828
sa(dp3829
g499
S'0.06344507206026419'
p3830
sg155
S'0.09090655244510779'
p3831
sg160
S'0.05304987634787156'
p3832
sg100
S'0.07064683738148543'
p3833
sa(dp3834
g499
S'0.10162998219100129'
p3835
sg155
S'0.1107927488109138'
p3836
sg143
S'0.09490395734991348'
p3837
sa(dp3838
g479
S'0.12319626694621777'
p3839
sg849
S'0.23051887391298723'
p3840
sg94
S'0.07221886289154061'
p3841
sa(dp3842
g225
S'0.08793610706228681'
p3843
sg138
S'0.052757700414999255'
p3844
sg75
S'0.12371305703356976'
p3845
sg31
S'0.05633514482841398'
p3846
sa(dp3847
g302
S'0.08827361556387808'
p3848
sg253
S'0.08824347002400766'
p3849
sg138
S'0.1256757898556697'
p3850
sa(dp3851
g38
S'0.06304750668865733'
p3852
sg22
S'0.13657851499514667'
p3853
sg13
S'0.05226030254300327'
p3854
sg62
S'0.05390708091617173'
p3855
sg4
S'0.08381778044354565'
p3856
sa(dp3857
g580
S'0.11298014224458278'
p3858
sg1345
S'0.16903650211626486'
p3859
sa(dp3860
g849
S'0.12441141707153286'
p3861
sa(dp3862
g1345
S'0.15054777394618718'
p3863
sg62
S'0.07195629784454644'
p3864
sa(dp3865
g183
S'0.091857087985436'
p3866
sg166
S'0.07286062186612599'
p3867
sg9
S'0.0811971604344098'
p3868
sg143
S'0.05792630177497256'
p3869
sg384
S'0.06672415668091766'
p3870
sa(dp3871
g11
S'0.12274944822213284'
p3872
sg54
S'0.08030399988948758'
p3873
sg341
S'0.08909641347830949'
p3874
sa(dp3875
g734
S'0.09905005416475365'
p3876
sg312
S'0.11157305125630894'
p3877
sg81
S'0.08978784324264356'
p3878
sa(dp3879
g514
S'0.06266029723793001'
p3880
sg553
S'0.062838214625358'
p3881
sg138
S'0.05275770041499923'
p3882
sa(dp3883
g723
S'0.176422644384018'
p3884
sg9
S'0.08920265508257895'
p3885
sa(dp3886
g52
S'0.43216452328343896'
p3887
sa(dp3888
g45
S'0.06412977870528974'
p3889
sa(dp3890
g166
S'0.08516116966592109'
p3891
sg384
S'0.06122914540159359'
p3892
sg849
S'0.055976846836097986'
p3893
sg58
S'0.06583528763737337'
p3894
sg341
S'0.0890964134783095'
p3895
sg1120
S'0.09240888774799359'
p3896
sa(dp3897
g166
S'0.06908938054066192'
p3898
sg884
S'0.05609307930983975'
p3899
sg31
S'0.050780877930226'
p3900
sa(dp3901
g155
S'0.09986932793121217'
p3902
sg543
S'0.06775370919947382'
p3903
sg1798
S'0.07728178467135569'
p3904
sa(dp3905
g110
S'0.13958353002913423'
p3906
sg31
S'0.14140624917586284'
p3907
sa(dp3908
g45
S'0.06412977870528973'
p3909
sg514
S'0.07035559004978169'
p3910
sa(dp3911
g22
S'0.054292962299054455'
p3912
sg34
S'0.06135289344049704'
p3913
sg52
S'0.0905369633093297'
p3914
sg75
S'0.05079496759289933'
p3915
sa(dp3916
g110
S'0.09594721944238145'
p3917
sg143
S'0.08060721405769256'
p3918
sg384
S'0.0886805290916208'
p3919
sa(dp3920
g155
S'0.2970558946864841'
p3921
sg264
S'0.05691130828885255'
p3922
sa(dp3923
g227
S'0.07045953995354529'
p3924
sg341
S'0.11833174458915388'
p3925
sg62
S'0.059803282937768015'
p3926
sa(dp3927
g155
S'0.09986932793121217'
p3928
sg11
S'0.059315516374704925'
p3929
sg160
S'0.08018985636814935'
p3930
sa(dp3931
g163
S'0.055429054801037284'
p3932
sg16
S'0.07260883817795209'
p3933
sg11
S'0.054230142282023545'
p3934
sg160
S'0.0534311805333801'
p3935
sg24
S'0.051639033369363485'
p3936
sa(dp3937
g1187
S'0.07773965766160387'
p3938
sg235
S'0.17306587280858926'
p3939
sg166
S'0.052340149171601826'
p3940
sa(dp3941
g235
S'0.34442079644360407'
p3942
sa(dp3943
g327
S'0.10076642186022775'
p3944
sg48
S'0.0890385177594883'
p3945
sg116
S'0.051874849706458274'
p3946
sa(dp3947
g264
S'0.07174714064779317'
p3948
sg60
S'0.11186355415345794'
p3949
sg13
S'0.10740021800000009'
p3950
sg94
S'0.11210554135547995'
p3951
sa(dp3952
g419
S'0.05714318280611848'
p3953
sg369
S'0.09742390643441981'
p3954
sg166
S'0.11261255335594826'
p3955
sg11
S'0.06784668084207837'
p3956
sa(dp3957
g110
S'0.0501949132923361'
p3958
sg179
S'0.20684698351621644'
p3959
sg648
S'0.07642093300301704'
p3960
sa(dp3961
g264
S'0.061775471031808304'
p3962
sg24
S'0.060907726210229406'
p3963
sg648
S'0.0733076620478948'
p3964
sa(dp3965
g94
S'0.057429539177453366'
p3966
sg179
S'0.14904114666182752'
p3967
sg648
S'0.08053530514593485'
p3968
sa(dp3969
g60
S'0.06604928119543149'
p3970
sg424
S'0.07444005742960551'
p3971
sg253
S'0.17624735660020038'
p3972
sg140
S'0.06839214125767674'
p3973
sa(dp3974
g166
S'0.17387029823938588'
p3975
sg81
S'0.05566107645270885'
p3976
sa(dp3977
g445
S'0.052133376444200824'
p3978
sg85
S'0.07767944524101882'
p3979
sg24
S'0.068547475436985'
p3980
sg138
S'0.07897189620447001'
p3981
sg155
S'0.07707275886484008'
p3982
sa(dp3983
g417
S'0.13548611317047737'
p3984
sg60
S'0.06456530127522947'
p3985
sg45
S'0.11548726563026432'
p3986
sg24
S'0.06370062310731833'
p3987
sa(dp3988
g155
S'0.08891451866703037'
p3989
sg216
S'0.10120463612102566'
p3990
sa(dp3991
g225
S'0.06831138827538687'
p3992
sg1603
S'0.06733225142450662'
p3993
sg4
S'0.09477258970772742'
p3994
sa(dp3995
g163
S'0.09183275436137878'
p3996
sg264
S'0.05098308918406228'
p3997
sg36
S'0.051584855073623335'
p3998
sg4
S'0.11729155887375382'
p3999
sa(dp4000
g155
S'0.086486718997357'
p4001
sg216
S'0.1851921986244213'
p4002
sa(dp4003
g107
S'0.18054089241637852'
p4004
sg384
S'0.07330271036869315'
p4005
sa(dp4006
g302
S'0.12473266028421329'
p4007
sg45
S'0.0814214771096825'
p4008
sg648
S'0.08934402602157927'
p4009
sa(dp4010
g166
S'0.15428668945031518'
p4011
sg22
S'0.06096066514967451'
p4012
sa(dp4013
g499
S'0.07732395237744452'
p4014
sg417
S'0.05159233326836038'
p4015
sg1089
S'0.06367259988650363'
p4016
sa(dp4017
g18
S'0.11200342409522748'
p4018
sg62
S'0.15702740219199535'
p4019
sa(dp4020
g419
S'0.07224316887983923'
p4021
sg166
S'0.18254898764195895'
p4022
sa(dp4023
g230
S'0.13299500670212144'
p4024
sg38
S'0.07400231595283908'
p4025
sg192
S'0.0670489157597'
p4026
sa(dp4027
g110
S'0.0710474851772122'
p4028
sg11
S'0.059315516374704925'
p4029
sg1980
S'0.05548301798537088'
p4030
sa(dp4031
g45
S'0.13912272192907255'
p4032
sa(dp4033
g155
S'0.09863973390413541'
p4034
sg126
S'0.12462298433835305'
p4035
sg73
S'0.09594957004488586'
p4036
sa(dp4037
g160
S'0.12541983776681534'
p4038
sg138
S'0.12567578985566968'
p4039
sa(dp4040
g41
S'0.05263406680761584'
p4041
sg300
S'0.09643853150895246'
p4042
sg166
S'0.051439812897931564'
p4043
sg143
S'0.09036584095598671'
p4044
sa(dp4045
g153
S'0.1003927105211481'
p4046
sg352
S'0.06945884175248206'
p4047
sg94
S'0.10124877623418045'
p4048
sa(dp4049
g382
S'0.1885966125834023'
p4050
sg384
S'0.10562638056861182'
p4051
sa(dp4052
g85
S'0.09162213299115445'
p4053
sg227
S'0.15752944954659495'
p4054
sa(dp4055
g382
S'0.16429058276984546'
p4056
sg384
S'0.06916733584827661'
p4057
sa(dp4058
g85
S'0.09162213299115443'
p4059
sg22
S'0.06449125484567687'
p4060
sg62
S'0.05904085812443254'
p4061
sa(dp4062
g45
S'0.11977600417154025'
p4063
sg179
S'0.056080550986027995'
p4064
sa(dp4065
g7
S'0.13129238470163793'
p4066
sg143
S'0.0827509424431351'
p4067
sa(dp4068
g73
S'0.09744439615966988'
p4069
sg94
S'0.12315839476254399'
p4070
sa(dp4071
g38
S'0.05779044737948106'
p4072
sg60
S'0.09987513937386196'
p4073
sa(dp4074
g166
S'0.06908938054066195'
p4075
sg20
S'0.06773064710437539'
p4076
sg140
S'0.07092334352113783'
p4077
sa(dp4078
g327
S'0.11274114800317545'
p4079
sS'122'
p4080
S'0.05659602123732486'
p4081
sg166
S'0.13481823612575247'
p4082
sa(dp4083
g225
S'0.057356579011205104'
p4084
sg34
S'0.05530391023148022'
p4085
sg94
S'0.13411320402672577'
p4086
sa(dp4087
g90
S'0.05574601381658669'
p4088
sg227
S'0.07463275981237544'
p4089
sg384
S'0.10409061766058172'
p4090
sa(dp4091
g327
S'0.08861340695344934'
p4092
sg52
S'0.09053696330932968'
p4093
sa(dp4094
g52
S'0.16988339694230786'
p4095
sg352
S'0.07287375879081233'
p4096
sa(dp4097
g734
S'0.07175900792526622'
p4098
sg766
S'0.0970180981767233'
p4099
sa(dp4100
g52
S'0.19717444318179522'
p4101
sa(dp4102
g107
S'0.06113896356693724'
p4103
sg235
S'0.05786481092898612'
p4104
sg22
S'0.19741589634711165'
p4105
sa(dp4106
g183
S'0.0680491520988832'
p4107
sg166
S'0.1895922824466614'
p4108
sg766
S'0.055977813955765864'
p4109
sa(dp4110
g166
S'0.2881855658242975'
p4111
sa(dp4112
g225
S'0.09022100680375045'
p4113
sg166
S'0.1238634268615708'
p4114
sg16
S'0.06122064166000594'
p4115
sa(dp4116
g327
S'0.08502128370423057'
p4117
sg16
S'0.05113709371625502'
p4118
sg22
S'0.06833059353142594'
p4119
sg48
S'0.08534136559164335'
p4120
sa(dp4121
g85
S'0.12982897615948313'
p4122
sg166
S'0.11261255335594829'
p4123
sg352
S'0.1403725449288901'
p4124
sa(dp4125
g22
S'0.08443459407764652'
p4126
sg31
S'0.07613855554041166'
p4127
sa(dp4128
g1798
S'0.08261816838203663'
p4129
sg62
S'0.10808427601667414'
p4130
sa(dp4131
g1187
S'0.059120240299911204'
p4132
sg16
S'0.050265832395824155'
p4133
sg45
S'0.08434867560816366'
p4134
sg4
S'0.08381778044354565'
p4135
sa(dp4136
g166
S'0.06449316407838027'
p4137
sg22
S'0.054292962299054455'
p4138
sg1120
S'0.11057813077985992'
p4139
sa(dp4140
g41
S'0.10279482600046445'
p4141
sg419
S'0.06841105083712586'
p4142
sg45
S'0.11721310340070897'
p4143
sg341
S'0.08475541083394188'
p4144
sg31
S'0.11650973351531661'
p4145
sa(dp4146
g734
S'0.0760632281949422'
p4147
sg518
S'0.0543772676466855'
p4148
sg22
S'0.11505803683294649'
p4149
sg179
S'0.05596570599476265'
p4150
sg384
S'0.057014320941498206'
p4151
sa(dp4152
g155
S'0.051019873981168494'
p4153
sg369
S'0.09619554788739891'
p4154
sg243
S'0.06077926352286774'
p4155
sa(dp4156
g1187
S'0.27319122431658216'
p4157
sg41
S'0.14342784969240513'
p4158
sa(dp4159
g166
S'0.17863747318247966'
p4160
sg16
S'0.10503987871673306'
p4161
sa(dp4162
g327
S'0.1017863387389937'
p4163
sg166
S'0.27723075656011564'
p4164
sg22
S'0.12562370573096487'
p4165
sa(dp4166
g849
S'0.2201807869763446'
p4167
sg312
S'0.06291046593995972'
p4168
sa(dp4169
g163
S'0.09659571247382999'
p4170
sg155
S'0.11087140418181027'
p4171
sa(dp4172
g41
S'0.12804323114649305'
p4173
sg126
S'0.11263685042522964'
p4174
sg138
S'0.05923685820181568'
p4175
sa(dp4176
g100
S'0.06179510478857953'
p4177
sg126
S'0.11246996943157464'
p4178
sg116
S'0.06402786461323669'
p4179
sg341
S'0.057566670055261865'
p4180
sa(dp4181
g45
S'0.056640691191836276'
p4182
sg48
S'0.0873021337131031'
p4183
sg24
S'0.06009325440317424'
p4184
sa(dp4185
g175
S'0.060736859400036196'
p4186
sg734
S'0.09047352331126404'
p4187
sg22
S'0.059894850145874264'
p4188
sg341
S'0.05189098304139657'
p4189
sg62
S'0.09772631797289885'
p4190
sa(dp4191
g419
S'0.06841105083712586'
p4192
sg126
S'0.06851675807138803'
p4193
sg445
S'0.07850818797997076'
p4194
sg116
S'0.06866995647754073'
p4195
sa(dp4196
g419
S'0.11235270024296877'
p4197
sg330
S'0.08641671838007169'
p4198
sg41
S'0.05327315494108244'
p4199
sa(dp4200
g163
S'0.11613878417493562'
p4201
sg734
S'0.08821624310172056'
p4202
sg22
S'0.10290502192616809'
p4203
sg179
S'0.06811872090154104'
p4204
sa(dp4205
g424
S'0.061177343127582516'
p4206
sg126
S'0.21194276403934414'
p4207
sS'141'
p4208
S'0.05087456377326595'
p4209
sa(dp4210
S'54'
p4211
S'0.08392191677419085'
p4212
sg166
S'0.14064116633057144'
p4213
sg24
S'0.06970238331714868'
p4214
sa(dp4215
g302
S'0.06396758575032124'
p4216
sg102
S'0.1140904233691164'
p4217
sg54
S'0.05804220437110747'
p4218
sa(dp4219
g41
S'0.05981561554777446'
p4220
sg4211
S'0.12485848613342201'
p4221
sg22
S'0.07460618826941824'
p4222
sa(dp4223
g419
S'0.08459456649614569'
p4224
sg330
S'0.17487192669882118'
p4225
sa(dp4226
g92
S'0.12635900535196526'
p4227
sa(dp4228
g734
S'0.2826644816101751'
p4229
sg24
S'0.06207853638572709'
p4230
sa(dp4231
g419
S'0.07224316887983924'
p4232
sg155
S'0.09090655244510777'
p4233
sg18
S'0.05201324509442871'
p4234
sg22
S'0.0744629244616617'
p4235
sg734
S'0.05243896571222335'
p4236
sa(dp4237
g90
S'0.05172352526283792'
p4238
sg940
S'0.055898358300221676'
p4239
sg235
S'0.08831087562997555'
p4240
sg34
S'0.055375083544135104'
p4241
sg54
S'0.11608637718225089'
p4242
sa(dp4243
g155
S'0.050027674277021775'
p4244
sg369
S'0.11723873458134174'
p4245
sa(dp4246
g146
S'0.14602422838995127'
p4247
sg34
S'0.08816833802402554'
p4248
sa(dp4249
g16
S'0.1529878843437241'
p4250
sg352
S'0.0649030358987329'
p4251
sa(dp4252
g227
S'0.06351270256424756'
p4253
sg773
S'0.2528765555386093'
p4254
sg555
S'0.0900611665491162'
p4255
sa(dp4256
g85
S'0.14289485253406467'
p4257
sg48
S'0.1282678194421666'
p4258
sg734
S'0.05702828901104971'
p4259
sa(dp4260
g179
S'0.06140267254837336'
p4261
sa(dp4262
g166
S'0.08884604992401743'
p4263
sg872
S'0.05292988216093944'
p4264
sg48
S'0.08315598682951267'
p4265
sg34
S'0.05832440512844318'
p4266
sg352
S'0.10065053933636345'
p4267
sg555
S'0.08834914277251354'
p4268
sa(dp4269
g327
S'0.11291943676700615'
p4270
sg940
S'0.11077439928969496'
p4271
sg54
S'0.1188072789049995'
p4272
sa(dp4273
g382
S'0.0504968585113142'
p4274
sg22
S'0.14153428337149848'
p4275
sg64
S'0.05860054399563654'
p4276
sa(dp4277
g227
S'0.0677844230027315'
p4278
sg166
S'0.09280396109809565'
p4279
sg22
S'0.08443459407764653'
p4280
sg34
S'0.060312328955761434'
p4281
sg138
S'0.0532598875827095'
p4282
sa(dp4283
g369
S'0.08155689624984414'
p4284
sg22
S'0.06313145606165056'
p4285
sg48
S'0.1380274599159676'
p4286
sg13
S'0.06569382162164152'
p4287
sg140
S'0.10545942591421846'
p4288
sa(dp4289
g16
S'0.0694380161762732'
p4290
sg514
S'0.08378113540348023'
p4291
sg264
S'0.12074123316809282'
p4292
sa(dp4293
g155
S'0.07707275886484007'
p4294
sg52
S'0.07143608235944536'
p4295
sg94
S'0.08659154985845285'
p4296
sa(dp4297
g90
S'0.05109235805957472'
p4298
sg73
S'0.08139449511513726'
p4299
sg52
S'0.1688237525780206'
p4300
sg179
S'0.05128914260606239'
p4301
sg22
S'0.05002967107140782'
p4302
sa(dp4303
g7
S'0.07781169875357224'
p4304
sg155
S'0.05101987398116847'
p4305
sg54
S'0.0775392148751632'
p4306
sa(dp4307
g419
S'0.05714318280611851'
p4308
sg734
S'0.05727086043800915'
p4309
sg1951
S'0.09282089688357412'
p4310
sg52
S'0.1139209851979662'
p4311
sa(dp4312
g872
S'0.09989666000028503'
p4313
sg22
S'0.13657851499514673'
p4314
sa(dp4315
g369
S'0.08377016427156458'
p4316
sg54
S'0.08518406066022956'
p4317
sg92
S'0.12335232543636385'
p4318
sg148
S'0.09173500233349911'
p4319
sa(dp4320
g227
S'0.08542232109261112'
p4321
sg166
S'0.14577304538993432'
p4322
sg24
S'0.06691281892036202'
p4323
sg13
S'0.08512473033554861'
p4324
sa(dp4325
g163
S'0.12306282307152329'
p4326
sg734
S'0.17972655132871532'
p4327
sg699
S'0.05157928540216808'
p4328
sg62
S'0.08387314189669891'
p4329
sa(dp4330
g302
S'0.09237271885204168'
p4331
sg382
S'0.1746887358106117'
p4332
sg166
S'0.1326906395620349'
p4333
sa(dp4334
g166
S'0.09431163089593014'
p4335
sg179
S'0.05128914260606237'
p4336
sg138
S'0.1495287882848472'
p4337
sa(dp4338
g73
S'0.0667965393730473'
p4339
sg38
S'0.06488767535183443'
p4340
sg62
S'0.05350218353769927'
p4341
sa(dp4342
g52
S'0.3335320547181837'
p4343
sg138
S'0.08547555967478374'
p4344
sa(dp4345
g90
S'0.08769420297961099'
p4346
sg107
S'0.11420246363957079'
p4347
sg499
S'0.058220107011161'
p4348
sg479
S'0.08559915927683172'
p4349
sa(dp4350
g419
S'0.08221483849582406'
p4351
sg369
S'0.09619554788739887'
p4352
sg140
S'0.11441667425417792'
p4353
sa(dp4354
g499
S'0.05379025613160075'
p4355
sg352
S'0.11278343816410227'
p4356
sg13
S'0.09951070575688453'
p4357
sa(dp4358
g230
S'0.15037486488533836'
p4359
sg369
S'0.060077293701622486'
p4360
sg52
S'0.278508870325832'
p4361
sa(dp4362
g227
S'0.0704595399535453'
p4363
sg97
S'0.050379775224881795'
p4364
sa(dp4365
g166
S'0.14921439827598454'
p4366
sg54
S'0.1260563060395329'
p4367
sa(dp4368
g479
S'0.06961373581922248'
p4369
sg22
S'0.07084965941005604'
p4370
sg138
S'0.08042057330017616'
p4371
sa(dp4372
g166
S'0.06449316407838028'
p4373
sg92
S'0.05177314493724015'
p4374
sg75
S'0.08725401231323456'
p4375
sa(dp4376
g235
S'0.07584175355436203'
p4377
sg20
S'0.08729184608630078'
p4378
sg24
S'0.09853758110606235'
p4379
sa(dp4380
g225
S'0.07926619753956868'
p4381
sg734
S'0.14524756963217292'
p4382
sg327
S'0.09083152947481196'
p4383
sg4
S'0.09477258970772744'
p4384
sa(dp4385
g235
S'0.17791235869613772'
p4386
sg24
S'0.07786762818454378'
p4387
sa(dp4388
g146
S'0.08901104509171848'
p4389
sg52
S'0.05852854223041102'
p4390
sg116
S'0.07281722648690028'
p4391
sg75
S'0.07997556598296449'
p4392
sg1980
S'0.212632339703014'
p4393
sa(dp4394
g499
S'0.12327508975617307'
p4395
sg24
S'0.05093605659424458'
p4396
sg274
S'0.10143982603467336'
p4397
sg64
S'0.08380299060397939'
p4398
sa(dp4399
g166
S'0.09099899906902544'
p4400
sg52
S'0.08161062682962233'
p4401
sg92
S'0.09048789764381848'
p4402
sg75
S'0.10056097127976359'
p4403
sa(dp4404
g327
S'0.10391484828053772'
p4405
sg34
S'0.16949333574810552'
p4406
sg235
S'0.09503027259036215'
p4407
sg3414
S'0.05152960633688109'
p4408
sa(dp4409
g253
S'0.11272614793716237'
p4410
sg2133
S'0.05753402270001926'
p4411
sg13
S'0.05145092442197585'
p4412
sa(dp4413
g62
S'0.06486189018035352'
p4414
sg75
S'0.11151578054394538'
p4415
sg384
S'0.05139309184032959'
p4416
sa(dp4417
g107
S'0.05014923502950729'
p4418
sg75
S'0.08399774443870807'
p4419
sa(dp4420
g499
S'0.1259360120045581'
p4421
sg41
S'0.06542616984786083'
p4422
sg424
S'0.06240713315456302'
p4423
sa(dp4424
g479
S'0.1501459761820408'
p4425
sg572
S'0.08663751549926403'
p4426
sg52
S'0.05407791858899449'
p4427
sa(dp4428
g155
S'0.11079274881091382'
p4429
sg327
S'0.05215436223311413'
p4430
sa(dp4431
g591
S'0.11172257584368266'
p4432
sg499
S'0.05301792256388771'
p4433
sg227
S'0.05830652504676687'
p4434
sa(dp4435
g1345
S'0.11445440963729'
p4436
sg253
S'0.12637167105690608'
p4437
sa(dp4438
g7
S'0.05837429526096744'
p4439
sg1231
S'0.08609668395112355'
p4440
sa(dp4441
g16
S'0.07625761992119469'
p4442
sg138
S'0.10017342756104683'
p4443
sa(dp4444
g175
S'0.05522706811237362'
p4445
sg73
S'0.07164354023132903'
p4446
sg38
S'0.09424949209981628'
p4447
sg34
S'0.07350590834727544'
p4448
sa(dp4449
g225
S'0.10008912196906518'
p4450
sg327
S'0.11291943676700615'
p4451
sg235
S'0.06368873864758359'
p4452
sg24
S'0.07423155129250548'
p4453
sg166
S'0.05234014917160183'
p4454
sa(dp4455
g22
S'0.0591801323014169'
p4456
sg52
S'0.21457605872806598'
p4457
sa(dp4458
g243
S'0.08622800175074173'
p4459
sg153
S'0.3179746309038396'
p4460
sa(dp4461
g175
S'0.0781843781009576'
p4462
sg327
S'0.0941717449342396'
p4463
sg52
S'0.1688237525780205'
p4464
sg24
S'0.06504218335458606'
p4465
sg22
S'0.08663151599144403'
p4466
sa(dp4467
g225
S'0.06962680180163053'
p4468
sg155
S'0.15316074816913686'
p4469
sg183
S'0.07787864572911661'
p4470
sa(dp4471
g327
S'0.12678703983265968'
p4472
sg235
S'0.07151033404872982'
p4473
sa(dp4474
g183
S'0.16664642655470724'
p4475
sg34
S'0.22920412167572246'
p4476
sa(dp4477
g7
S'0.23885073931742318'
p4478
sg107
S'0.08194760903874257'
p4479
sa(dp4480
g723
S'0.062036083653285536'
p4481
sg327
S'0.11291943676700615'
p4482
sg183
S'0.06333915843076696'
p4483
sa(dp4484
g327
S'0.17368451130089818'
p4485
sg1345
S'0.07762968450551669'
p4486
sg24
S'0.0620785363857271'
p4487
sa(dp4488
g327
S'0.09265152106706002'
p4489
sg1231
S'0.050699846346089504'
p4490
sg24
S'0.07087939582621418'
p4491
sg155
S'0.09090655244510772'
p4492
sa(dp4493
g327
S'0.11291943676700615'
p4494
sg166
S'0.22248235786649953'
p4495
sa(dp4496
g163
S'0.05540634917389312'
p4497
sg146
S'0.09303260167310866'
p4498
sg52
S'0.07428647895853657'
p4499
sg48
S'0.05311365024801565'
p4500
sa(dp4501
g1187
S'0.06768356835801252'
p4502
sg41
S'0.05841228105110728'
p4503
sg264
S'0.05668800455802933'
p4504
sa(dp4505
g41
S'0.12755363949233536'
p4506
sg225
S'0.12646921460894994'
p4507
sg102
S'0.07622186400453744'
p4508
sg54
S'0.06439452946623907'
p4509
sg327
S'0.06817724604358413'
p4510
sa(dp4511
g382
S'0.05491344860883976'
p4512
sg24
S'0.08638456619928393'
p4513
sg445
S'0.06278915877583663'
p4514
sa(dp4515
g1798
S'0.06632697540717393'
p4516
sg153
S'0.08943790125696634'
p4517
sg327
S'0.057967101682266625'
p4518
sa(dp4519
g734
S'0.11217362781806357'
p4520
sg52
S'0.2877797485681385'
p4521
sa(dp4522
g369
S'0.16599723519929258'
p4523
sg22
S'0.0744629244616617'
p4524
sg699
S'0.09075226292518468'
p4525
sa(dp4526
g73
S'0.12858592470370894'
p4527
sg369
S'0.06628053903944443'
p4528
sg382
S'0.07497203965076346'
p4529
sg94
S'0.0921622021235103'
p4530
sa(dp4531
g1187
S'0.10428541327804881'
p4532
sg73
S'0.12714680126518263'
p4533
sg369
S'0.10657436766442888'
p4534
sg382
S'0.12370054835138675'
p4535
sa(dp4536
g1187
S'0.06378616238090096'
p4537
sg73
S'0.15850093355166342'
p4538
sg369
S'0.10616721750338369'
p4539
sg94
S'0.052275523659571006'
p4540
sg382
S'0.11485871811470277'
p4541
sa(dp4542
g1187
S'0.0637861623809009'
p4543
sg369
S'0.10616721750338363'
p4544
sg22
S'0.05451958522969206'
p4545
sg699
S'0.09075226292518467'
p4546
sa(dp4547
g382
S'0.09624916466135955'
p4548
sg52
S'0.1688237525780206'
p4549
sg143
S'0.08975767528770162'
p4550
sg1120
S'0.08325842651798453'
p4551
sa(dp4552
g419
S'0.06374064061585513'
p4553
sg734
S'0.0760632281949422'
p4554
sg1603
S'0.05039083030837062'
p4555
sa(dp4556
g18
S'0.1370945099934937'
p4557
sg79
S'0.053019827366914435'
p4558
sg148
S'0.10461209083959941'
p4559
sa(dp4560
g52
S'0.09679874546087766'
p4561
sg102
S'0.13854632695366373'
p4562
sg160
S'0.1379733908714877'
p4563
sa(dp4564
g1187
S'0.06768356835801254'
p4565
sg183
S'0.1757968877847163'
p4566
sg81
S'0.10596254296604314'
p4567
sg94
S'0.07542180097687028'
p4568
sa(dp4569
g225
S'0.098735514700095'
p4570
sg146
S'0.059080906033938424'
p4571
sa(dp4572
g1187
S'0.1467587144133654'
p4573
sg85
S'0.10065545991281476'
p4574
sa(dp4575
g419
S'0.052795272923953085'
p4576
sg445
S'0.19585513401898363'
p4577
sg648
S'0.08751465993768068'
p4578
sa(dp4579
g81
S'0.06112807743308445'
p4580
sg54
S'0.08518406066022956'
p4581
sa(dp4582
g479
S'0.11368693146170558'
p4583
sg64
S'0.0899822375899709'
p4584
sa(dp4585
g258
S'0.22012532512780475'
p4586
sg153
S'0.12505110946560918'
p4587
sa(dp4588
g699
S'0.40354458040460967'
p4589
sa(dp4590
g58
S'0.057239568101969354'
p4591
sg153
S'0.09776006322612178'
p4592
sg138
S'0.07288238132155943'
p4593
sg31
S'0.06325364751930607'
p4594
sa(dp4595
g22
S'0.06449125484567686'
p4596
sg138
S'0.0632315571986943'
p4597
sg54
S'0.09748255410713282'
p4598
sa(dp4599
g341
S'0.09192746223924086'
p4600
sg1459
S'0.15072387225000564'
p4601
sg143
S'0.051976992168499346'
p4602
sa(dp4603
g36
S'0.05158485507362334'
p4604
sg85
S'0.1481239103760716'
p4605
sg22
S'0.07859899211261126'
p4606
sg341
S'0.09402571477559707'
p4607
sa(dp4608
g153
S'0.07046901698663433'
p4609
sg138
S'0.10017342756104684'
p4610
sa(dp4611
g479
S'0.05292185692781352'
p4612
sg1194
S'0.09924351469737612'
p4613
sg16
S'0.05576376508949681'
p4614
sa(dp4615
g1231
S'0.069379146334131'
p4616
sg153
S'0.07046901698663431'
p4617
sg64
S'0.12832397616006022'
p4618
sa(dp4619
g54
S'0.051524827426365265'
p4620
sg13
S'0.07874197066146328'
p4621
sg197
S'0.08493927623065863'
p4622
sa(dp4623
g22
S'0.06096066514967451'
p4624
sg13
S'0.06509644754171957'
p4625
sg197
S'0.09858479935040236'
p4626
sa(dp4627
g499
S'0.08065513929299811'
p4628
sg445
S'0.07850818797997076'
p4629
sg160
S'0.06923504710396756'
p4630
sg11
S'0.07027032563888672'
p4631
sa(dp4632
g81
S'0.09399250522562978'
p4633
sg1089
S'0.27649109448613823'
p4634
sa(dp4635
g499
S'0.06344507206026419'
p4636
sg155
S'0.1108498916770774'
p4637
sg160
S'0.1228515636597653'
p4638
sg100
S'0.07064683738148544'
p4639
sa(dp4640
g499
S'0.08947696728422293'
p4641
sg155
S'0.11079274881091382'
p4642
sg34
S'0.07350590834727544'
p4643
sa(dp4644
g327
S'0.07270818183509042'
p4645
sg22
S'0.10437793330961616'
p4646
sg64
S'0.16357634753185796'
p4647
sa(dp4648
g243
S'0.076892782718598'
p4649
sg166
S'0.1547694168035359'
p4650
sg62
S'0.10078158396432044'
p4651
sa(dp4652
g166
S'0.06699575696776439'
p4653
sg92
S'0.14404970793173916'
p4654
sa(dp4655
g60
S'0.07793216626189856'
p4656
sg155
S'0.09398120093246158'
p4657
sg235
S'0.07812183052274069'
p4658
sg48
S'0.09575635474691385'
p4659
sg24
S'0.060093254403174236'
p4660
sa(dp4661
g327
S'0.23142866338437554'
p4662
sg60
S'0.056898819965422426'
p4663
sg155
S'0.12002186541181928'
p4664
sa(dp4665
g155
S'0.09090655244510776'
p4666
sg243
S'0.09069427237082217'
p4667
sg699
S'0.06083725407723023'
p4668
sa(dp4669
g1231
S'0.05932011427372291'
p4670
sg34
S'0.08840625856531788'
p4671
sg22
S'0.05479324099248292'
p4672
sg24
S'0.13287005511082492'
p4673
sa(dp4674
g22
S'0.054292962299054434'
p4675
sg166
S'0.052340149171601846'
p4676
sg9
S'0.12326541566862081'
p4677
sg11
S'0.10226232228738555'
p4678
sa(dp4679
g85
S'0.1116648656557364'
p4680
sg1603
S'0.06254384521514901'
p4681
sg11
S'0.10226232228738556'
p4682
sa(dp4683
g740
S'0.054566728879805966'
p4684
sg734
S'0.0882162431017206'
p4685
sg9
S'0.08680637094828567'
p4686
sg52
S'0.0783839484025513'
p4687
sa(dp4688
g102
S'0.299176526596068'
p4689
sa(dp4690
g225
S'0.057059935495710486'
p4691
sg73
S'0.08139449511513726'
p4692
sg126
S'0.05723147918130141'
p4693
sg138
S'0.06717463721476563'
p4694
sg94
S'0.15777595204695186'
p4695
sa(dp4696
g146
S'0.16199594000931627'
p4697
sg34
S'0.09781193816083225'
p4698
sa(dp4699
g382
S'0.1396510854529231'
p4700
sg22
S'0.07158567709546135'
p4701
sg155
S'0.0770727588648401'
p4702
sa(dp4703
g740
S'0.09463089189627014'
p4704
sg4
S'0.16604057805665534'
p4705
sa(dp4706
g126
S'0.11246996943157464'
p4707
sg166
S'0.08879919389193706'
p4708
sa(dp4709
g34
S'0.15258489368048408'
p4710
sg16
S'0.05570039611033056'
p4711
sg22
S'0.15612788743356887'
p4712
sg197
S'0.06107920355770415'
p4713
sa(dp4714
g163
S'0.11613878417493562'
p4715
sg24
S'0.0620785363857271'
p4716
sa(dp4717
g97
S'0.07827709556217878'
p4718
sa(dp4719
g58
S'0.08977193124211456'
p4720
sg143
S'0.20604996649525395'
p4721
sa(dp4722
g155
S'0.1816132651610949'
p4723
sg24
S'0.07155706339644054'
p4724
sg555
S'0.1431534030553126'
p4725
sg382
S'0.06692511941239775'
p4726
sa(dp4727
g97
S'0.3232568096098869'
p4728
sg197
S'0.05676041751678'
p4729
sa(dp4730
g175
S'0.055327043908627374'
p4731
sg382
S'0.13119686441911232'
p4732
sg166
S'0.0617729854316176'
p4733
sg62
S'0.0669646998290774'
p4734
sg155
S'0.07707275886484008'
p4735
sa(dp4736
g73
S'0.20201466714854943'
p4737
sg341
S'0.05695458342108842'
p4738
sg1089
S'0.0696563825913717'
p4739
sa(dp4740
g9
S'0.07824784581839718'
p4741
sg52
S'0.1582942916788948'
p4742
sg977
S'0.06796168809885755'
p4743
sa(dp4744
g155
S'0.08156844325634731'
p4745
sg36
S'0.07517100797107319'
p4746
sg92
S'0.053271853592935556'
p4747
sg138
S'0.1345800367197572'
p4748
sa(dp4749
g734
S'0.07557178289802728'
p4750
sg126
S'0.21278932009145557'
p4751
sa(dp4752
g166
S'0.18959228244666143'
p4753
sg984
S'0.13324082025980524'
p4754
sa(dp4755
g230
S'0.05631134185284904'
p4756
sg155
S'0.05605009087448507'
p4757
sg81
S'0.18163097933908395'
p4758
sa(dp4759
g591
S'0.05095750130979064'
p4760
sg85
S'0.1116648656557364'
p4761
sg235
S'0.10014778336791881'
p4762
sa(dp4763
g126
S'0.10138118586393338'
p4764
sg24
S'0.07786762818454378'
p4765
sg166
S'0.0800441898048437'
p4766
sa(dp4767
g369
S'0.06997252274439264'
p4768
sg11
S'0.23255498298224161'
p4769
sg92
S'0.07558378965867232'
p4770
sa(dp4771
g163
S'0.05084340632378466'
p4772
sg73
S'0.07224403388512819'
p4773
sg235
S'0.17606009985557247'
p4774
sg31
S'0.0790186906651879'
p4775
sa(dp4776
g155
S'0.30303109001200074'
p4777
sg179
S'0.07874052629608957'
p4778
sa(dp4779
g60
S'0.11193773998355747'
p4780
sg73
S'0.053625159102942785'
p4781
sg34
S'0.07721352875984375'
p4782
sg166
S'0.1348182361257525'
p4783
sa(dp4784
g155
S'0.09986932793121218'
p4785
sg426
S'0.057081864213620145'
p4786
sa(dp4787
g225
S'0.057356579011205104'
p4788
sg382
S'0.14809263478654122'
p4789
sg102
S'0.0590226368704836'
p4790
sg11
S'0.10313475343143205'
p4791
sa(dp4792
g102
S'0.3414476317651218'
p4793
sa(dp4794
g155
S'0.08093488282912295'
p4795
sg243
S'0.05080759390688289'
p4796
sg166
S'0.05291728263415634'
p4797
sg62
S'0.15875755428428073'
p4798
sa(dp4799
g90
S'0.0517235252628379'
p4800
sg97
S'0.3075439290316425'
p4801
sg54
S'0.11608637718225089'
p4802
sa(dp4803
g166
S'0.15263397879400453'
p4804
sg977
S'0.07183413421244464'
p4805
sg445
S'0.07146246856579767'
p4806
sg94
S'0.09216220212351024'
p4807
sa(dp4808
g734
S'0.08821624310172059'
p4809
sg45
S'0.11788052183001771'
p4810
sg179
S'0.1167307805286547'
p4811
sa(dp4812
g175
S'0.07953309792593045'
p4813
sg1603
S'0.07469686012192742'
p4814
sg81
S'0.10427313607982248'
p4815
sg22
S'0.05429296229905444'
p4816
sa(dp4817
g60
S'0.07556910956030517'
p4818
sg166
S'0.07664617898515866'
p4819
sg24
S'0.09853758110606235'
p4820
sg64
S'0.05352319286963565'
p4821
sa(dp4822
g734
S'0.08472224412803635'
p4823
sg369
S'0.12487529012444702'
p4824
sg62
S'0.081629982065173'
p4825
sa(dp4826
g175
S'0.06073685940003619'
p4827
sg327
S'0.09083152947481195'
p4828
sg102
S'0.06997744613466536'
p4829
sa(dp4830
g1345
S'0.1434692852403166'
p4831
sg11
S'0.09387892224713335'
p4832
sg555
S'0.052063615918640005'
p4833
sa(dp4834
g1194
S'0.05151528212777705'
p4835
sg166
S'0.12271896994605004'
p4836
sg52
S'0.23383319281429366'
p4837
sg526
S'0.051104479520574196'
p4838
sa(dp4839
g7
S'0.05261898182633312'
p4840
sg73
S'0.06457996836712458'
p4841
sg1189
S'0.05676643993488048'
p4842
sg24
S'0.14359648376963446'
p4843
sg11
S'0.08122513490306849'
p4844
sa(dp4845
g216
S'0.06964904327504941'
p4846
sg36
S'0.24724042931447007'
p4847
sa(dp4848
g155
S'0.11087140418181028'
p4849
sg138
S'0.06717463721476562'
p4850
sg62
S'0.2920905903553816'
p4851
sa(dp4852
g155
S'0.3189655132148476'
p4853
sg384
S'0.062347901104511376'
p4854
sa(dp4855
g92
S'0.07607917475079698'
p4856
sg31
S'0.0806411746419708'
p4857
sa(dp4858
g107
S'0.09091080366674675'
p4859
sg126
S'0.11246996943157464'
p4860
sg479
S'0.05292185692781353'
p4861
sa(dp4862
g166
S'0.06449316407838027'
p4863
sg9
S'0.28125460945674013'
p4864
sg24
S'0.0863845661992839'
p4865
sa(dp4866
g166
S'0.11335012009108403'
p4867
sg253
S'0.058144055458187516'
p4868
sg526
S'0.12451495063370156'
p4869
sa(dp4870
g417
S'0.052798547728355065'
p4871
sg153
S'0.22965265067665439'
p4872
sg179
S'0.055840875905836536'
p4873
sa(dp4874
g409
S'0.08460807887063755'
p4875
sg723
S'0.05585975786835797'
p4876
sg11
S'0.07699714207208748'
p4877
sg977
S'0.13912198491159708'
p4878
sa(dp4879
g369
S'0.06862667495422813'
p4880
sg352
S'0.052750020991954485'
p4881
sg160
S'0.06465476323292332'
p4882
sa(dp4883
g1798
S'0.07728178467135573'
p4884
sg352
S'0.11327807880920918'
p4885
sg160
S'0.0582802378397858'
p4886
sg384
S'0.05139309184032961'
p4887
sa(dp4888
g230
S'0.07727437565826155'
p4889
sg382
S'0.08892575925005854'
p4890
sg34
S'0.05113424127475503'
p4891
sg514
S'0.22112815484378118'
p4892
sa(dp4893
g216
S'0.10012109427697241'
p4894
sg11
S'0.11441533719416398'
p4895
sg140
S'0.06652772067381799'
p4896
sa(dp4897
g723
S'0.07418909856006395'
p4898
sg166
S'0.22248235786649956'
p4899
sa(dp4900
g73
S'0.10839920542385165'
p4901
sg369
S'0.08377016427156458'
p4902
sg22
S'0.0818044686742378'
p4903
sg13
S'0.05226030254300327'
p4904
sg384
S'0.05139309184032961'
p4905
sa(dp4906
g225
S'0.10206745938530339'
p4907
sg327
S'0.1425098691469841'
p4908
sg94
S'0.06224719327555577'
p4909
sa(dp4910
g155
S'0.14233106371548399'
p4911
sg9
S'0.21324566857755253'
p4912
sg24
S'0.07941350368556271'
p4913
sa(dp4914
g327
S'0.06672036124421243'
p4915
sg52
S'0.09562006273794801'
p4916
sg341
S'0.061645029788282284'
p4917
sg160
S'0.08528284373690602'
p4918
sa(dp4919
g155
S'0.10243542196627238'
p4920
sg34
S'0.296306651255267'
p4921
sg107
S'0.07169614367239577'
p4922
sa(dp4923
g18
S'0.08192825394238318'
p4924
sg9
S'0.05128215158645537'
p4925
sg445
S'0.13129248626170661'
p4926
sg94
S'0.09216220212351027'
p4927
sa(dp4928
g327
S'0.08861340695344931'
p4929
sg79
S'0.11267549917166696'
p4930
sg13
S'0.10658844429265767'
p4931
sg4
S'0.06867949924664019'
p4932
sa(dp4933
g369
S'0.060822061514383595'
p4934
sg243
S'0.0557738388727772'
p4935
sg94
S'0.18522733573697914'
p4936
sa(dp4937
g73
S'0.0667965393730473'
p4938
sg143
S'0.051976992168499346'
p4939
sg1089
S'0.05784669017136916'
p4940
sa(dp4941
g7
S'0.0578683595216026'
p4942
sg16
S'0.11555641124510528'
p4943
sg94
S'0.09216220212351023'
p4944
sa(dp4945
g34
S'0.050340659339776606'
p4946
sg166
S'0.22243566610589832'
p4947
sa(dp4948
g225
S'0.05220911130537932'
p4949
sg734
S'0.07238230494419298'
p4950
sg97
S'0.06128044592718968'
p4951
sg24
S'0.050936056594244584'
p4952
sg54
S'0.06756754525917838'
p4953
sa(dp4954
g175
S'0.06073685940003619'
p4955
sg227
S'0.06351270256424758'
p4956
sg52
S'0.09256543609380416'
p4957
sg62
S'0.053907080916171746'
p4958
sg13
S'0.08512473033554864'
p4959
sa(dp4960
g1194
S'0.1990068633712429'
p4961
sg60
S'0.09002812145519394'
p4962
sg636
S'0.0686700992443567'
p4963
sa(dp4964
g225
S'0.23263352723811345'
p4965
sg126
S'0.10138118586393335'
p4966
sa(dp4967
g1194
S'0.09140196059171635'
p4968
sg126
S'0.17205608557540492'
p4969
sg341
S'0.057205695006944085'
p4970
sg62
S'0.059040858124432535'
p4971
sg31
S'0.07613855554041166'
p4972
sa(dp4973
g73
S'0.06457996836712458'
p4974
sg1980
S'0.19789553841973392'
p4975
sa(dp4976
g146
S'0.07308926244113903'
p4977
sg34
S'0.060312328955761434'
p4978
sg126
S'0.10225439826351118'
p4979
sg24
S'0.0509360565942446'
p4980
sa(dp4981
g163
S'0.09373347085146032'
p4982
sg155
S'0.0779597094028486'
p4983
sg166
S'0.06908938054066192'
p4984
sg52
S'0.08161062682962235'
p4985
sa(dp4986
g73
S'0.17412806100894226'
p4987
sg62
S'0.05390708091617174'
p4988
sa(dp4989
g300
S'0.07886876637637869'
p4990
sa(dp4991
g155
S'0.07096321321313812'
p4992
sg352
S'0.10311193461963883'
p4993
sg11
S'0.09387892224713337'
p4994
sa(dp4995
g1194
S'0.17117531751959503'
p4996
sg369
S'0.15602556558330782'
p4997
sa(dp4998
g11
S'0.16886360901652273'
p4999
sg160
S'0.23355718606669418'
p5000
sa(dp5001
g225
S'0.11224213687584365'
p5002
sg734
S'0.08821624310172056'
p5003
sg24
S'0.0863845661992839'
p5004
sg54
S'0.08234823418466429'
p5005
sa(dp5006
g225
S'0.09209578976931865'
p5007
sg11
S'0.14373727032705758'
p5008
sa(dp5009
g744
S'0.10001076643319484'
p5010
sg126
S'0.2985677526192053'
p5011
sg636
S'0.05771528998017493'
p5012
sa(dp5013
g79
S'0.05738623023959897'
p5014
sg166
S'0.07601070843591207'
p5015
sg143
S'0.05315583036766537'
p5016
sg1089
S'0.08454333607630603'
p5017
sa(dp5018
g155
S'0.05596863680175587'
p5019
sg166
S'0.08516116966592108'
p5020
sg22
S'0.07748105476143503'
p5021
sg179
S'0.051289142606062384'
p5022
sg13
S'0.1168562866818865'
p5023
sa(dp5024
g419
S'0.1261507025615483'
p5025
sg45
S'0.06412977870528974'
p5026
sg24
S'0.08334790643689238'
p5027
sa(dp5028
g60
S'0.05689881996542247'
p5029
sg227
S'0.05305163316055719'
p5030
sg166
S'0.12176301458595738'
p5031
sg22
S'0.0866315159914441'
p5032
sg94
S'0.08457226220687933'
p5033
sa(dp5034
g146
S'0.2126926370649266'
p5035
sa(dp5036
g126
S'0.19450998914369194'
p5037
sg36
S'0.07156549918618886'
p5038
sg13
S'0.06509644754171956'
p5039
sa(dp5040
g419
S'0.062271499263854425'
p5041
sg110
S'0.0846146659660782'
p5042
sg81
S'0.08555714534923144'
p5043
sg160
S'0.053049876347871554'
p5044
sg499
S'0.05347340244427936'
p5045
sa(dp5046
g175
S'0.07818437810095764'
p5047
sg155
S'0.08342002049178308'
p5048
sg36
S'0.07544201915067533'
p5049
sg1089
S'0.06624241361628785'
p5050
sa(dp5051
g102
S'0.09188706466302894'
p5052
sg648
S'0.15721896999520735'
p5053
sa(dp5054
g419
S'0.09032066936548944'
p5055
sg734
S'0.10142833257544584'
p5056
sg54
S'0.06327444213186603'
p5057
sg4
S'0.050953352651000344'
p5058
sa(dp5059
g34
S'0.055345358305550214'
p5060
sg166
S'0.12176301458595735'
p5061
sg36
S'0.15779617022075695'
p5062
sg179
S'0.06043960383607145'
p5063
sg92
S'0.07558378965867235'
p5064
sa(dp5065
g155
S'0.2094174205730299'
p5066
sg424
S'0.0781638275190329'
p5067
sg94
S'0.10124877623418044'
p5068
sa(dp5069
g341
S'0.11921850847872828'
p5070
sg138
S'0.0592368582018157'
p5071
sg31
S'0.06325364751930605'
p5072
sa(dp5073
g166
S'0.10346209212593922'
p5074
sg94
S'0.30418333172709705'
p5075
sa(dp5076
g16
S'0.050265832395824155'
p5077
sg45
S'0.051484247815618354'
p5078
sg62
S'0.05390708091617173'
p5079
sg4
S'0.0619081619151821'
p5080
sa(dp5081
g73
S'0.17412806100894232'
p5082
sg16
S'0.1269494972450966'
p5083
sa(dp5084
g100
S'0.07394811969535794'
p5085
sg16
S'0.06791677999627523'
p5086
sg9
S'0.08680637094828564'
p5087
sa(dp5088
g41
S'0.08973219966141767'
p5089
sg34
S'0.10996495306761067'
p5090
sg166
S'0.17387029823938593'
p5091
sa(dp5092
g34
S'0.08816833802402557'
p5093
sg24
S'0.13264167450545272'
p5094
sg11
S'0.09217994416725028'
p5095
sa(dp5096
g1345
S'0.09361093716039254'
p5097
sg22
S'0.09440626369363135'
p5098
sg11
S'0.05399224378319409'
p5099
sg155
S'0.09090655244510777'
p5100
sa(dp5101
g94
S'0.08801704740242722'
p5102
sg31
S'0.15355926408264123'
p5103
sa(dp5104
g31
S'0.06616688592442684'
p5105
sg22
S'0.0844345940776465'
p5106
sg648
S'0.08327933166387964'
p5107
sa(dp5108
g192
S'0.23137105472242656'
p5109
sa(dp5110
g166
S'0.08605907385159664'
p5111
sg52
S'0.1016557813435893'
p5112
sa(dp5113
g734
S'0.07238230494419297'
p5114
sg11
S'0.16368060955902716'
p5115
sa(dp5116
g734
S'0.08235397456017782'
p5117
sg54
S'0.07753921487516321'
p5118
sg31
S'0.06616688592442685'
p5119
sa(dp5120
g163
S'0.07954329242117764'
p5121
sg3414
S'0.07636852822876851'
p5122
sg636
S'0.09821093945247851'
p5123
sg31
S'0.0800878174775409'
p5124
sa(dp5125
g4
S'0.10016744806647378'
p5126
sa(dp5127
g107
S'0.06462154907436968'
p5128
sg36
S'0.08221256516187529'
p5129
sg138
S'0.05325988758270949'
p5130
sg197
S'0.08201398266281734'
p5131
sa(dp5132
g369
S'0.08077968986100653'
p5133
sg302
S'0.07612060065709966'
p5134
sg94
S'0.11232307721598397'
p5135
sa(dp5136
g225
S'0.22176823763587375'
p5137
sg34
S'0.16515089306565905'
p5138
sg81
S'0.05105977558598873'
p5139
sa(dp5140
g192
S'0.05007650420054184'
p5141
sg143
S'0.17997506169736235'
p5142
sg62
S'0.059803282937768015'
p5143
sa(dp5144
g419
S'0.05745624157294408'
p5145
sg45
S'0.10625829413652718'
p5146
sg24
S'0.055958009656180245'
p5147
sg94
S'0.09029396696999867'
p5148
sa(dp5149
g192
S'0.2445247427089963'
p5150
sa(dp5151
g734
S'0.09232564417616261'
p5152
sg31
S'0.056195216308442014'
p5153
sg192
S'0.05105993941912365'
p5154
sg54
S'0.10745422372311765'
p5155
sg85
S'0.09162213299115443'
p5156
sa(dp5157
g22
S'0.05451958522969206'
p5158
sg312
S'0.051618663068622755'
p5159
sg192
S'0.14080496596298703'
p5160
sa(dp5161
g312
S'0.08721649575351655'
p5162
sg264
S'0.05098308918406229'
p5163
sa(dp5164
g85
S'0.1253783952094522'
p5165
sg264
S'0.0845353537231434'
p5166
sa(dp5167
g18
S'0.11200342409522747'
p5168
sg166
S'0.052340149171601846'
p5169
sa(dp5170
g175
S'0.07565501134498483'
p5171
sg107
S'0.06113896356693724'
p5172
sg227
S'0.05182160924704131'
p5173
sg22
S'0.07460618826941824'
p5174
sg24
S'0.08334790643689242'
p5175
sa(dp5176
g107
S'0.054451758946411535'
p5177
sg60
S'0.06341609465352677'
p5178
sg102
S'0.06547836374200279'
p5179
sg197
S'0.05134283180528243'
p5180
sa(dp5181
g7
S'0.06357379109051488'
p5182
sg45
S'0.05148424781561835'
p5183
sg138
S'0.06946576403599436'
p5184
sg160
S'0.0911446656323311'
p5185
sg31
S'0.1274645427794984'
p5186
sa(dp5187
g977
S'0.09177747344441427'
p5188
sg4
S'0.09623889074476158'
p5189
sa(dp5190
g302
S'0.05731405831891928'
p5191
sg166
S'0.1034620921259392'
p5192
sg52
S'0.08646960150793895'
p5193
sg4
S'0.07916275736754134'
p5194
sa(dp5195
g327
S'0.0826798514510752'
p5196
sg146
S'0.05314592320916934'
p5197
sg302
S'0.10234438846802645'
p5198
sg4
S'0.06632388189680709'
p5199
sa(dp5200
g330
S'0.2506175004893068'
p5201
sa(dp5202
g369
S'0.09082024395070104'
p5203
sg22
S'0.06656126381944634'
p5204
sg81
S'0.05560595308228453'
p5205
sg740
S'0.08990948013912964'
p5206
sg341
S'0.07392917566177916'
p5207
sg34
S'0.15119425898694927'
p5208
sg52
S'0.060654191556566095'
p5209
sa(dp5210
g22
S'0.05429296229905444'
p5211
sg52
S'0.06623093349577289'
p5212
sg48
S'0.0647324879459315'
p5213
sg13
S'0.15520050391977128'
p5214
sa(dp5215
g58
S'0.056907503449569234'
p5216
sg60
S'0.07907331219101216'
p5217
sg36
S'0.11222779042444597'
p5218
sa(dp5219
g60
S'0.07556910956030516'
p5220
sg253
S'0.22192663399857007'
p5221
sg31
S'0.1292532342690844'
p5222
sa(dp5223
g227
S'0.05255789330006579'
p5224
sg52
S'0.34452604916998497'
p5225
sa(dp5226
g166
S'0.0669957569677644'
p5227
sg138
S'0.06753022547935622'
p5228
sa(dp5229
g1798
S'0.16378302992845506'
p5230
sa(dp5231
g85
S'0.127375864870612'
p5232
sg253
S'0.05072848246066208'
p5233
sg555
S'0.05010808088190468'
p5234
sg1089
S'0.050389484993913214'
p5235
sa(dp5236
g34
S'0.05514004340112614'
p5237
sg22
S'0.08080889998387222'
p5238
sg227
S'0.05060587049144024'
p5239
sa(dp5240
g45
S'0.07310817196204186'
p5241
sa(dp5242
g102
S'0.05372564875785325'
p5243
sg155
S'0.10087822206109257'
p5244
sg52
S'0.08425814857452141'
p5245
sg31
S'0.08611022515639646'
p5246
sa(dp5247
g1187
S'0.06558664275482545'
p5248
sg227
S'0.05830652504676687'
p5249
sg160
S'0.07680777813970174'
p5250
sa(dp5251
g155
S'0.13079323090904701'
p5252
sg52
S'0.06431480934255175'
p5253
sg31
S'0.09608189477238131'
p5254
sa(dp5255
g227
S'0.09476556976710211'
p5256
sg312
S'0.20874664482130065'
p5257
sg24
S'0.09853758110606231'
p5258
sa(dp5259
g110
S'0.11527750021557737'
p5260
sg160
S'0.052501748326144924'
p5261
sa(dp5262
g107
S'0.06462154907436968'
p5263
sg9
S'0.14102717813031868'
p5264
sa(dp5265
g604
S'0.0732322768533821'
p5266
sg52
S'0.11417315742247586'
p5267
sg179
S'0.06586375768664024'
p5268
sg13
S'0.07748520915204558'
p5269
sa(dp5270
g499
S'0.0833884112922338'
p5271
sg110
S'0.054699657118123725'
p5272
sg45
S'0.14658048878866303'
p5273
sg1089
S'0.13201735848052007'
p5274
sa(dp5275
g1194
S'0.09140196059171635'
p5276
sg4
S'0.09623889074476157'
p5277
sg52
S'0.05434313972656693'
p5278
sg31
S'0.10605356438836613'
p5279
sa(dp5280
g97
S'0.0625327901316602'
p5281
sg160
S'0.052501748326144924'
p5282
sg148
S'0.06530966927065518'
p5283
sa(dp5284
g146
S'0.15459956787214443'
p5285
sg1231
S'0.09667019257361846'
p5286
sg24
S'0.05605686019740497'
p5287
sa(dp5288
g479
S'0.08056854508340425'
p5289
sg166
S'0.05813457127648016'
p5290
sg11
S'0.10313475343143202'
p5291
sa(dp5292
g45
S'0.07777530182503346'
p5293
sg1798
S'0.09626369150178035'
p5294
sg179
S'0.07648436113008515'
p5295
sa(dp5296
g97
S'0.11114899319224421'
p5297
sg75
S'0.07067860585454287'
p5298
sa(dp5299
g499
S'0.11378299709777971'
p5300
sa(dp5301
g41
S'0.1356592537930098'
p5302
sg22
S'0.07084965941005604'
p5303
sg31
S'0.06173568719440779'
p5304
sa(dp5305
g499
S'0.08947696728422293'
p5306
sg155
S'0.07433370409057859'
p5307
sg300
S'0.06318917620388402'
p5308
sg52
S'0.05407791858899448'
p5309
sg1187
S'0.053433627848047054'
p5310
sa(dp5311
g155
S'0.08891451866703043'
p5312
sg227
S'0.06351270256424757'
p5313
sg24
S'0.11073205597708914'
p5314
sa(dp5315
g22
S'0.28994584469369156'
p5316
sg648
S'0.058625686617571324'
p5317
sa(dp5318
g102
S'0.053325348835224363'
p5319
sg52
S'0.06623093349577289'
p5320
sg75
S'0.06294798249967774'
p5321
sa(dp5322
g11
S'0.2512763594322835'
p5323
sg31
S'0.09054469375879345'
p5324
sa(dp5325
g253
S'0.06628442653049489'
p5326
sa(dp5327
g417
S'0.06970698979597656'
p5328
sg514
S'0.06895217623518764'
p5329
sg507
S'0.14534052102914066'
p5330
sa(dp5331
g52
S'0.06623093349577289'
p5332
sg36
S'0.07589088488718015'
p5333
sa(dp5334
g52
S'0.07065581756544057'
p5335
sg179
S'0.050447863284191555'
p5336
sa(dp5337
g312
S'0.1790310790426599'
p5338
sg166
S'0.05331876439780683'
p5339
sa(dp5340
g197
S'0.130683108051345'
p5341
sa(dp5342
g300
S'0.06791395711219692'
p5343
sg81
S'0.1049473144898116'
p5344
sg312
S'0.07861753507248573'
p5345
sa(dp5346
g499
S'0.09160994855717987'
p5347
sg62
S'0.05390708091617174'
p5348
sg1089
S'0.14503338331595694'
p5349
sa(dp5350
g499
S'0.08065513929299813'
p5351
sg227
S'0.07446751182842934'
p5352
sg45
S'0.16103234045743609'
p5353
sa(dp5354
g155
S'0.10087822206109258'
p5355
sg52
S'0.07428647895853657'
p5356
sg11
S'0.27336897533486015'
p5357
sg31
S'0.07613855554041166'
p5358
sa(dp5359
g744
S'0.11094965745090336'
p5360
sg166
S'0.052340149171601846'
p5361
sg22
S'0.05429296229905444'
p5362
sg13
S'0.05797638466554407'
p5363
sa(dp5364
g7
S'0.06130597869715201'
p5365
sg107
S'0.1609039388963594'
p5366
sg479
S'0.05778119439275259'
p5367
sa(dp5368
g166
S'0.15672785465411612'
p5369
sg13
S'0.05226030254300327'
p5370
sg92
S'0.057623469851273215'
p5371
sa(dp5372
g45
S'0.2377160053067085'
p5373
sa(dp5374
g52
S'0.15967329134801153'
p5375
sg11
S'0.15935129314216911'
p5376
sg13
S'0.05280305807182304'
p5377
sg140
S'0.10499398617771309'
p5378
sa(dp5379
g327
S'0.10178633873899369'
p5380
sg102
S'0.14666111098393775'
p5381
sg73
S'0.06457996836712455'
p5382
sa(dp5383
g166
S'0.0828322914821108'
p5384
sg514
S'0.06138506677618607'
p5385
sg16
S'0.05572639354919635'
p5386
sa(dp5387
g73
S'0.08648958689548811'
p5388
sg720
S'0.056176869837538834'
p5389
sg52
S'0.07065581756544058'
p5390
sg107
S'0.06003799051037903'
p5391
sa(dp5392
g34
S'0.05034065933977661'
p5393
sg1089
S'0.13201735848052013'
p5394
sg75
S'0.181281150786848'
p5395
sa(dp5396
g22
S'0.06644597720583284'
p5397
sg45
S'0.06926846220290409'
p5398
sg138
S'0.05275770041499925'
p5399
sg13
S'0.05797638466554407'
p5400
sa(dp5401
g479
S'0.06961373581922246'
p5402
sg16
S'0.06122064166000593'
p5403
sg13
S'0.05226030254300327'
p5404
sg166
S'0.05813457127648016'
p5405
sa(dp5406
g734
S'0.16212733148805633'
p5407
sa(dp5408
g490
S'0.06560204613081284'
p5409
sg445
S'0.10217908255372532'
p5410
sg148
S'0.14067871446238808'
p5411
sa(dp5412
g107
S'0.2576890064162323'
p5413
sg60
S'0.05256950316046628'
p5414
sg140
S'0.0631883207451647'
p5415
sa(dp5416
g155
S'0.11079274881091382'
p5417
sg1798
S'0.11004067461511331'
p5418
sa(dp5419
g1798
S'0.12355473774126778'
p5420
sg13
S'0.05145092442197586'
p5421
sa(dp5422
g7
S'0.07918874854095163'
p5423
sg166
S'0.11335012009108403'
p5424
sa(dp5425
g73
S'0.1567146445787779'
p5426
sg138
S'0.12567578985566966'
p5427
sa(dp5428
g591
S'0.10164115439038736'
p5429
sg235
S'0.052257243566638495'
p5430
sg1798
S'0.08031779847065258'
p5431
sg31
S'0.1060535643883661'
p5432
sa(dp5433
g1798
S'0.12355473774126778'
p5434
sg11
S'0.12846665135459007'
p5435
sg138
S'0.0592368582018157'
p5436
sa(dp5437
g175
S'0.1302371038239597'
p5438
sg7
S'0.0518977023014642'
p5439
sg1476
S'0.12483324610159104'
p5440
sa(dp5441
g155
S'0.11079274881091382'
p5442
sg24
S'0.17145567054673277'
p5443
sg107
S'0.06660477385318993'
p5444
sa(dp5445
g41
S'0.10279482600046447'
p5446
sg45
S'0.051484247815618334'
p5447
sg94
S'0.06838434844163517'
p5448
sa(dp5449
g155
S'0.1107927488109138'
p5450
sg22
S'0.05429296229905444'
p5451
sg24
S'0.12284361091961912'
p5452
sg62
S'0.05980328293776801'
p5453
sg107
S'0.07875778875996832'
p5454
sa(dp5455
g41
S'0.05082134679496579'
p5456
sg734
S'0.11191034643247783'
p5457
sg75
S'0.06318391403286239'
p5458
sa(dp5459
g41
S'0.1027948260004645'
p5460
sg45
S'0.08434867560816367'
p5461
sa(dp5462
g16
S'0.06122064166000594'
p5463
sg45
S'0.11721310340070899'
p5464
sg62
S'0.053907080916171746'
p5465
sa(dp5466
g1231
S'0.11020435755367497'
p5467
sa(dp5468
g11
S'0.11441533719416395'
p5469
sg13
S'0.0822824144791009'
p5470
sa(dp5471
g60
S'0.05203353645754896'
p5472
sg876
S'0.060633567840271956'
p5473
sg179
S'0.135665444998534'
p5474
sa(dp5475
a(dp5476
g18
S'0.18498665690041297'
p5477
sg22
S'0.13238382214148944'
p5478
sa(dp5479
g97
S'0.28226968158422316'
p5480
sa(dp5481
g7
S'0.05837429526096745'
p5482
sg54
S'0.0823482341846643'
p5483
sa(dp5484
g155
S'0.07433370409057859'
p5485
sg243
S'0.08622800175074173'
p5486
sg9
S'0.12326541566862087'
p5487
sg22
S'0.05429296229905444'
p5488
sa(dp5489
g58
S'0.07773445504339711'
p5490
sg227
S'0.0743777041654935'
p5491
sg73
S'0.0667471306075773'
p5492
sg140
S'0.07164254177897546'
p5493
sa(dp5494
g60
S'0.09350066488545875'
p5495
sg13
S'0.08025444176185025'
p5496
sg64
S'0.07690146645565471'
p5497
sa(dp5498
g60
S'0.09350066488545872'
p5499
sg235
S'0.13030779370552711'
p5500
sa(dp5501
g327
S'0.05796710168226661'
p5502
sg38
S'0.08495712521702087'
p5503
sg166
S'0.058134571276480175'
p5504
sa(dp5505
g34
S'0.10019900741970073'
p5506
sg166
S'0.1626056484099893'
p5507
sg1120
S'0.09073045621584136'
p5508
sa(dp5509
g45
S'0.05299749396398769'
p5510
sg1120
S'0.15210764019121767'
p5511
sg75
S'0.18019602326130446'
p5512
sa(dp5513
g73
S'0.05163055907935772'
p5514
sg849
S'0.08774680339006452'
p5515
sg22
S'0.06075689795328972'
p5516
sg34
S'0.06993313686075646'
p5517
sg977
S'0.19853149764004446'
p5518
sa(dp5519
g274
S'0.08717117623726518'
p5520
sa(dp5521
g1231
S'0.1105298640419985'
p5522
sg60
S'0.06200520607353377'
p5523
sg341
S'0.0671773646229289'
p5524
sa(dp5525
g41
S'0.05981561554777446'
p5526
sg60
S'0.08484972984509744'
p5527
sg45
S'0.07777530182503345'
p5528
sa(dp5529
g243
S'0.11025219383331995'
p5530
sg153
S'0.05723632298049793'
p5531
sa(dp5532
g1603
S'0.05039083030837059'
p5533
sg1089
S'0.06367259988650363'
p5534
sg54
S'0.2038783832524484'
p5535
sa(dp5536
g419
S'0.10127547862967122'
p5537
sg34
S'0.07721352875984379'
p5538
sg22
S'0.15848813352351024'
p5539
sa(dp5540
g146
S'0.08306093205712384'
p5541
sg227
S'0.06778442300273148'
p5542
sg2042
S'0.05102810709347947'
p5543
sg11
S'0.0639639133991789'
p5544
sa(dp5545
g85
S'0.07874584138445119'
p5546
sg60
S'0.06811850292683039'
p5547
sg382
S'0.06045416067308694'
p5548
sa(dp5549
g175
S'0.08520103718894359'
p5550
sg417
S'0.0622753618630724'
p5551
sg227
S'0.07775609261871638'
p5552
sg216
S'0.052235344902042964'
p5553
sg1231
S'0.07064318557805926'
p5554
sa(dp5555
g507
S'0.10306941586008687'
p5556
sg1120
S'0.12764878645445607'
p5557
sa(dp5558
g384
S'0.05207868417158452'
p5559
sg179
S'0.05128914260606238'
p5560
sg24
S'0.0924935670446133'
p5561
sg2881
S'0.07561400952058234'
p5562
sg94
S'0.17607687450697'
p5563
sa(dp5564
g7
S'0.0526189818263331'
p5565
sg300
S'0.12268800343310576'
p5566
sg302
S'0.06861562070563838'
p5567
sg166
S'0.058134571276480154'
p5568
sg64
S'0.08111059334030911'
p5569
sa(dp5570
g85
S'0.07218688993196504'
p5571
sg143
S'0.10063383146007976'
p5572
sg1120
S'0.13433588141387537'
p5573
sg54
S'0.07680417573663997'
p5574
sa(dp5575
g1089
S'0.07539287484629693'
p5576
sg92
S'0.10303517334869954'
p5577
sg1476
S'0.06541017960949659'
p5578
sa(dp5579
g45
S'0.057115447296125686'
p5580
sg227
S'0.10691858467388053'
p5581
sg60
S'0.08772212446708358'
p5582
sg553
S'0.06283821462535802'
p5583
sa(dp5584
g41
S'0.05396780803525107'
p5585
sg155
S'0.06016431679721856'
p5586
sg192
S'0.06019828523794453'
p5587
sg341
S'0.10767990962395294'
p5588
sa(dp5589
g175
S'0.05528602834098905'
p5590
sg507
S'0.08168267232059552'
p5591
sg1120
S'0.10070212583182615'
p5592
sg773
S'0.07063542849371895'
p5593
sa(dp5594
g102
S'0.06997744613466539'
p5595
sg382
S'0.10427339772981407'
p5596
sg60
S'0.09002812145519395'
p5597
sg9
S'0.07824784581839715'
p5598
sa(dp5599
g227
S'0.0963771303567929'
p5600
sg140
S'0.0928329620495014'
p5601
sa(dp5602
g300
S'0.1482602805513329'
p5603
sg302
S'0.06396758575032127'
p5604
sg64
S'0.10213525249674928'
p5605
sa(dp5606
g300
S'0.1007783849047422'
p5607
sg4
S'0.07286297117936386'
p5608
sa(dp5609
g81
S'0.07253740302875451'
p5610
sg52
S'0.06298186132563462'
p5611
sg62
S'0.05005625776145591'
p5612
sg140
S'0.1054594259142185'
p5613
sa(dp5614
g85
S'0.1116648656557364'
p5615
sg227
S'0.05830652504676689'
p5616
sg166
S'0.08879919389193709'
p5617
sg13
S'0.1308944741062145'
p5618
sa(dp5619
g160
S'0.14498232536484792'
p5620
sa(dp5621
g146
S'0.1788886561824966'
p5622
sg166
S'0.20054709171084323'
p5623
sa(dp5624
g300
S'0.18471932527166815'
p5625
sg64
S'0.08998223758997087'
p5626
sa(dp5627
g34
S'0.06449581953555929'
p5628
sg384
S'0.05207868417158453'
p5629
sg24
S'0.0924935670446133'
p5630
sg94
S'0.1486254908169428'
p5631
sa(dp5632
g146
S'0.17280595860098724'
p5633
sg34
S'0.07028399857174623'
p5634
sg166
S'0.1526339787940045'
p5635
sa(dp5636
g41
S'0.05897558894373737'
p5637
sg60
S'0.13384735851192103'
p5638
sg52
S'0.12542986388634944'
p5639
sg64
S'0.059200974811945584'
p5640
sa(dp5641
g60
S'0.09987513937386194'
p5642
sg148
S'0.07746268417743356'
p5643
sa(dp5644
g60
S'0.12183522376944271'
p5645
sg52
S'0.19394651435035443'
p5646
sg341
S'0.05720569500694409'
p5647
sa(dp5648
g682
S'0.050578299973193346'
p5649
sa(dp5650
g897
S'0.09129136210404544'
p5651
sg419
S'0.08221483849582405'
p5652
sg1120
S'0.15056047391175023'
p5653
sa(dp5654
g166
S'0.26922302987559077'
p5655
sa(dp5656
g740
S'0.088684564349162'
p5657
sg110
S'0.054829904300429506'
p5658
sg227
S'0.05746926209787199'
p5659
sg102
S'0.06245833764936688'
p5660
sa(dp5661
g256
S'0.17728239145306868'
p5662
sg227
S'0.057216505425928176'
p5663
sg45
S'0.05649736970237636'
p5664
sg13
S'0.09370524016745886'
p5665
sa(dp5666
g227
S'0.06351270256424756'
p5667
sg60
S'0.0681185029268304'
p5668
sg197
S'0.09010001049642101'
p5669
sa(dp5670
g146
S'0.06477182075508897'
p5671
sg60
S'0.08772212446708355'
p5672
sg45
S'0.057115447296125665'
p5673
sg183
S'0.05118614352398856'
p5674
sa(dp5675
g300
S'0.1007783849047422'
p5676
sg81
S'0.05017326816890267'
p5677
sa(dp5678
g155
S'0.12294576371769221'
p5679
sg52
S'0.17560806765677855'
p5680
sa(dp5681
g22
S'0.08825171138916195'
p5682
sg555
S'0.15311850705441427'
p5683
sa(dp5684
g155
S'0.20801686806514105'
p5685
sg45
S'0.057115447296125686'
p5686
sa(dp5687
g166
S'0.08713564853304984'
p5688
sg52
S'0.14752407166374215'
p5689
sg445
S'0.16203824988374063'
p5690
sa(dp5691
g499
S'0.17717610300127887'
p5692
sg580
S'0.07576260743526418'
p5693
sg555
S'0.1484310345581214'
p5694
sa(dp5695
g110
S'0.08461466596607821'
p5696
sg166
S'0.06288895225014117'
p5697
sg54
S'0.2470575983469052'
p5698
sg330
S'0.050962437778395896'
p5699
sa(dp5700
g7
S'0.052618981826333094'
p5701
sg1951
S'0.05634988454228227'
p5702
sg636
S'0.057715289980174916'
p5703
sg54
S'0.05231963286768423'
p5704
sa(dp5705
g45
S'0.051484247815618354'
p5706
sg60
S'0.12289254924773928'
p5707
sg52
S'0.15829429167889478'
p5708
sa(dp5709
g183
S'0.08764518824432377'
p5710
sg31
S'0.056335144828413966'
p5711
sg24
S'0.09853758110606231'
p5712
sg384
S'0.0570143209414982'
p5713
sa(dp5714
g897
S'0.05647284018117288'
p5715
sg73
S'0.053625159102942806'
p5716
sg227
S'0.06351270256424757'
p5717
sg341
S'0.09571022009812369'
p5718
sa(dp5719
g60
S'0.13180689338542753'
p5720
sg52
S'0.18397484473436962'
p5721
sa(dp5722
g155
S'0.06099154359715329'
p5723
sg60
S'0.1318068933854275'
p5724
sg45
S'0.05683546224479966'
p5725
sg445
S'0.1711791647256459'
p5726
sa(dp5727
g22
S'0.05866755942742732'
p5728
sg92
S'0.07275147840277382'
p5729
sg4211
S'0.0718875511249615'
p5730
sg45
S'0.06834862389553123'
p5731
sg179
S'0.05974892162974035'
p5732
sg13
S'0.05319230505010732'
p5733
sa(dp5734
g52
S'0.15052283011800247'
p5735
sg341
S'0.21720287069843647'
p5736
sg138
S'0.14037832705483816'
p5737
sa(dp5738
g300
S'0.11167736530838811'
p5739
sg13
S'0.09742854838401521'
p5740
sa(dp5741
g60
S'0.09849525296484116'
p5742
sa(dp5743
g45
S'0.052154826000953544'
p5744
sg52
S'0.2786292873381294'
p5745
sg341
S'0.1439991808583639'
p5746
sa(dp5747
g107
S'0.07099279977456084'
p5748
sg227
S'0.06351270256424758'
p5749
sg36
S'0.057453744103537124'
p5750
sg54
S'0.06327444213186603'
p5751
sg62
S'0.07581669944453531'
p5752
sa(dp5753
g740
S'0.054566728879805966'
p5754
sg81
S'0.1042731360798225'
p5755
sg36
S'0.051584855073623356'
p5756
sg341
S'0.05756667005526186'
p5757
sa(dp5758
g60
S'0.19163691108133643'
p5759
sg1045
S'0.07095145066086767'
p5760
sg648
S'0.06333599243190997'
p5761
sa(dp5762
g382
S'0.0670664635156182'
p5763
sa(dp5764
g409
S'0.10290900133065567'
p5765
sg73
S'0.09969541757515538'
p5766
sg1222
S'0.055934407140253634'
p5767
sa(dp5768
g734
S'0.08235397456017782'
p5769
sg60
S'0.09192021492148826'
p5770
sa(dp5771
g940
S'0.056150955330225634'
p5772
sg31
S'0.07689917063904976'
p5773
sa(dp5774
g499
S'0.06569973729093452'
p5775
sg41
S'0.05015185428297725'
p5776
sg22
S'0.07438044000567165'
p5777
sg555
S'0.056732559874968565'
p5778
sa(dp5779
g38
S'0.07853319847157814'
p5780
sg166
S'0.07241355073185289'
p5781
sa(dp5782
g1187
S'0.05343362784804706'
p5783
sg734
S'0.11252227291527739'
p5784
sg636
S'0.10048706771581305'
p5785
sa(dp5786
g85
S'0.06077100317339731'
p5787
sg34
S'0.051134241274755035'
p5788
sg31
S'0.05609787530739404'
p5789
sg553
S'0.11134704928658272'
p5790
sg73
S'0.05829290957376656'
p5791
sa(dp5792
g16
S'0.06122064166000595'
p5793
sg22
S'0.059894850145874284'
p5794
sg13
S'0.08512473033554863'
p5795
sa(dp5796
g73
S'0.07164354023132903'
p5797
sg60
S'0.07556910956030516'
p5798
sg52
S'0.11484299312288652'
p5799
sg274
S'0.11147720605082197'
p5800
sg22
S'0.05429296229905444'
p5801
sa(dp5802
g699
S'0.1105425165571369'
p5803
sg2133
S'0.11211611517899414'
p5804
sg1089
S'0.11242878265034399'
p5805
sa(dp5806
g734
S'0.11196312674530587'
p5807
sg166
S'0.06828941842222522'
p5808
sg52
S'0.12070191812007465'
p5809
sg140
S'0.08419304575118329'
p5810
sa(dp5811
g41
S'0.12619124438175292'
p5812
sg138
S'0.19859387929634012'
p5813
sa(dp5814
g1187
S'0.06558664275482548'
p5815
sg734
S'0.12467528782205581'
p5816
sg34
S'0.06135289344049704'
p5817
sa(dp5818
g507
S'0.05093904591156031'
p5819
sg2133
S'0.1484652354345642'
p5820
sg1089
S'0.07582561479328202'
p5821
sa(dp5822
g97
S'0.11115429681606238'
p5823
sg1476
S'0.0645306167021352'
p5824
sg197
S'0.06571918376437887'
p5825
sa(dp5826
g604
S'0.05363386242367249'
p5827
sg153
S'0.05211400896662843'
p5828
sg166
S'0.053318764397806834'
p5829
sg58
S'0.05237179194196485'
p5830
sg766
S'0.08547120119618697'
p5831
sa(dp5832
g155
S'0.11087140418181027'
p5833
sg518
S'0.05924360896304347'
p5834
sg1089
S'0.1119947197663332'
p5835
sg384
S'0.07037960663160266'
p5836
sa(dp5837
g155
S'0.1243991739495073'
p5838
sg327
S'0.07220494735368484'
p5839
sa(dp5840
g175
S'0.05522706811237362'
p5841
sg227
S'0.05830652504676687'
p5842
sg4
S'0.09298552906019701'
p5843
sa(dp5844
g7
S'0.05189770230146421'
p5845
sg34
S'0.06888762437364628'
p5846
sg60
S'0.07120420672535371'
p5847
sg264
S'0.05724430748365597'
p5848
sa(dp5849
g107
S'0.07099279977456081'
p5850
sg227
S'0.06351270256424756'
p5851
sg54
S'0.11804848845277488'
p5852
sa(dp5853
g41
S'0.05897558894373738'
p5854
sg52
S'0.07065581756544059'
p5855
sg60
S'0.10098293071937574'
p5856
sg45
S'0.11721310340070899'
p5857
sg2133
S'0.1119179418772733'
p5858
sa(dp5859
g45
S'0.06926846220290411'
p5860
sg60
S'0.07556910956030517'
p5861
sg52
S'0.10268997821610813'
p5862
sg274
S'0.0993241911440436'
p5863
sa(dp5864
g110
S'0.05451242568168536'
p5865
sg52
S'0.06623093349577289'
p5866
sg2133
S'0.12415920562100739'
p5867
sg1089
S'0.08797862970006043'
p5868
sa(dp5869
g60
S'0.08194854530550341'
p5870
sg52
S'0.1839748447343696'
p5871
sa(dp5872
g175
S'0.06738008301915205'
p5873
sg34
S'0.09781193816083227'
p5874
sg1951
S'0.07466628833059907'
p5875
sg24
S'0.0620785363857271'
p5876
sa(dp5877
g18
S'0.11191544802832298'
p5878
sg2133
S'0.10096313261309153'
p5879
sa(dp5880
g60
S'0.05203353645754896'
p5881
sg52
S'0.11417315742247587'
p5882
sg140
S'0.05458665655826896'
p5883
sa(dp5884
g155
S'0.14368856498793925'
p5885
sg52
S'0.19115871947144006'
p5886
sg73
S'0.05362515910294279'
p5887
sa(dp5888
g227
S'0.10640370172601617'
p5889
sg13
S'0.0787419706614633'
p5890
sa(dp5891
g155
S'0.0834200204917831'
p5892
sg60
S'0.05689881996542246'
p5893
sg52
S'0.08646960150793899'
p5894
sg445
S'0.05642677640367997'
p5895
sa(dp5896
g73
S'0.28367615365076004'
p5897
sg155
S'0.09986932793121217'
p5898
sa(dp5899
g126
S'0.15788655271140123'
p5900
sg9
S'0.06535977598752374'
p5901
sa(dp5902
g85
S'0.09951185074895799'
p5903
sg1089
S'0.11228465951361725'
p5904
sa(dp5905
g107
S'0.06845015748952545'
p5906
sg872
S'0.055991467052137735'
p5907
sg48
S'0.12194321051167967'
p5908
sa(dp5909
g230
S'0.06247051504547434'
p5910
sg155
S'0.05002767427702178'
p5911
sg34
S'0.07350590834727545'
p5912
sg1951
S'0.07466628833059907'
p5913
sg52
S'0.0783839484025513'
p5914
sa(dp5915
g227
S'0.07911265548652874'
p5916
sg341
S'0.05099089288000973'
p5917
sa(dp5918
g73
S'0.278244793646562'
p5919
sg155
S'0.09863973390413541'
p5920
sa(dp5921
g426
S'0.0789914827419837'
p5922
sg300
S'0.07886876637637867'
p5923
sg13
S'0.06321511180718505'
p5924
sg143
S'0.06363744606089088'
p5925
sa(dp5926
g41
S'0.059815615547774474'
p5927
sg60
S'0.08484972984509745'
p5928
sg45
S'0.05048425558554604'
p5929
sg138
S'0.0728823813215594'
p5930
sa(dp5931
g107
S'0.12936657916565578'
p5932
sg166
S'0.05876802761210916'
p5933
sg73
S'0.080442062492791'
p5934
sa(dp5935
g60
S'0.08772212446708358'
p5936
sg52
S'0.11484299312288652'
p5937
sg16
S'0.055763765089496826'
p5938
sa(dp5939
g79
S'0.08836946935811021'
p5940
sg102
S'0.05332534883522436'
p5941
sa(dp5942
g41
S'0.4226345989399801'
p5943
sa(dp5944
g175
S'0.08264647792839974'
p5945
sa(dp5946
g235
S'0.057104103865454586'
p5947
sg1951
S'0.11112181934359225'
p5948
sg22
S'0.13238382214148944'
p5949
sg62
S'0.081629982065173'
p5950
sa(dp5951
g143
S'0.18843222336593649'
p5952
sa(dp5953
g225
S'0.11238103781983871'
p5954
sa(dp5955
g302
S'0.1322593973159809'
p5956
sg1951
S'0.07123610189026114'
p5957
sg179
S'0.05589208807065541'
p5958
sg699
S'0.07080892369321502'
p5959
sa(dp5960
g41
S'0.1007521849070056'
p5961
sg60
S'0.07120420672535371'
p5962
sg52
S'0.12894682758307668'
p5963
sg264
S'0.05724430748365596'
p5964
sa(dp5965
g18
S'0.18859911287759543'
p5966
sg60
S'0.07907331219101219'
p5967
sa(dp5968
g225
S'0.29453736047751977'
p5969
sa(dp5970
g110
S'0.09295710370557571'
p5971
sg243
S'0.05581688141068002'
p5972
sg166
S'0.05813457127648015'
p5973
sg11
S'0.09217994416725023'
p5974
sg526
S'0.06709784721599452'
p5975
sa(dp5976
g849
S'0.17656282172331156'
p5977
sg22
S'0.05989485014587425'
p5978
sg369
S'0.05090573647901926'
p5979
sg3487
S'0.06676582593541533'
p5980
sa(dp5981
g155
S'0.08342002049178307'
p5982
sg166
S'0.22241808811605707'
p5983
sg179
S'0.07874052629608957'
p5984
sa(dp5985
g36
S'0.0758908848871802'
p5986
sg22
S'0.07859899211261126'
p5987
sg166
S'0.06449316407838027'
p5988
sg102
S'0.0897843935555596'
p5989
sa(dp5990
g225
S'0.10008912196906522'
p5991
sg166
S'0.05234014917160186'
p5992
sg64
S'0.15074731212386294'
p5993
sa(dp5994
g580
S'0.2221443272025325'
p5995
sg54
S'0.05152482742636527'
p5996
sa(dp5997
g538
S'0.05620280897005153'
p5998
sg3414
S'0.14727789562182106'
p5999
sg4208
S'0.16564082825277576'
p6000
sa(dp6001
g419
S'0.1719598650396875'
p6002
sg7
S'0.12767004683349636'
p6003
sg52
S'0.05434313972656694'
p6004
sg143
S'0.057926301774972565'
p6005
sa(dp6006
g225
S'0.2815575124730302'
p6007
sg341
S'0.08712070385489853'
p6008
sa(dp6009
g166
S'0.06908938054066192'
p6010
sg183
S'0.057094342834701405'
p6011
sg243
S'0.08868130920322537'
p6012
sg126
S'0.05756194880720626'
p6013
sg341
S'0.06284579230557834'
p6014
sg692
S'0.07888847223264525'
p6015
sa(dp6016
g1067
S'0.08267398873579176'
p6017
sg11
S'0.11482112823484633'
p6018
sg2881
S'0.058176454784833985'
p6019
sg327
S'0.07220494735368484'
p6020
sa(dp6021
g107
S'0.08456488830633933'
p6022
sg94
S'0.062247193275555814'
p6023
sg977
S'0.05189079498047501'
p6024
sg766
S'0.050954083556438226'
p6025
sg31
S'0.07613855554041167'
p6026
sa(dp6027
g327
S'0.0521543622331141'
p6028
sg126
S'0.06385790980446097'
p6029
sg36
S'0.12450294451429375'
p6030
sg2881
S'0.06396629579159993'
p6031
sa(dp6032
g183
S'0.07900396136306498'
p6033
sg36
S'0.07936336263190069'
p6034
sg138
S'0.06946576403599437'
p6035
sa(dp6036
g591
S'0.05721557717001468'
p6037
sg734
S'0.09905005416475365'
p6038
sg243
S'0.11046316059361684'
p6039
sa.